(lp1
S'@boboxm103nyc'
p2
aS'@sethmeyers.'
p3
aS'@earn_it_work:'
p4
aS'@nymike7'
p5
aS'@ElizaWindso:'
p6
aS'@peddoc63'
p7
aS'@TPPatriots'
p8
aS'@Theodopolis_'
p9
aS'@4geiger'
p10
aS'@ricktimlick'
p11
aS'@Jahbalon'
p12
aS'@alikilmartin.'
p13
aS'@SeaFishWorks:'
p14
aS'@peytoncabot:'
p15
aS'@HaveAHeartCmpn:'
p16
aS'@Who_MikeJones6:'
p17
aS'@MrNicolasBell:'
p18
aS'@DavidKyleOnline:'
p19
aS'@tppatriots'
p20
aS'@spurs'
p21
aS'@RonnaKirkland:'
p22
aS'@samflaherty_'
p23
aS'@peterjsteele:'
p24
aS'@rjbachor'
p25
aS'@SOFLAGOLF!"'
p26
aS'@mdamelincourt:'
p27
aS'@1smltwngrl:'
p28
aS'@McInnis11:'
p29
aS'@_cnolan:'
p30
aS'@RobAstorino,'
p31
aS'@jonkarl'
p32
aS'@TigerWoods'
p33
aS'@PeritusTraining:'
p34
aS'@stevewardrip:'
p35
aS'@DannBushh:'
p36
aS'@VickyBrush:'
p37
aS'@HERCULES:'
p38
aS'@JesseStroup'
p39
aS'@RealDonaldTrump'
p40
aS'@mikegallagher24:'
p41
aS"@DineshDSouza's"
p42
aS'@Robby_Moreira:'
p43
aS'@JetRanger69:'
p44
aS'@shillelagh2:'
p45
aS'@emilyfashion16:'
p46
aS'@BreitbartFeed--why'
p47
aS'@Read_N_Learn:'
p48
aS'@wobriensomerset:'
p49
aS'@KatieCouric:'
p50
aS'@StaceyLambright:'
p51
aS'@jaketapper:'
p52
aS'@incorrectpoliti:'
p53
aS'@RonnieWNichol'
p54
aS'@Candy_Uptigrove'
p55
aS'@cvillandry:'
p56
aS'@RowdyRoadie11:'
p57
aS'@AndyWHumphreys:'
p58
aS'@NickySummer'
p59
aS'@TheUSALifeStyle'
p60
aS'@MarkSciubbaDoe'
p61
aS'@kstan500.'
p62
aS'@sallyannscooke:'
p63
aS'@ValetaSue57:'
p64
aS'@gja360:'
p65
aS'@miawesbrooks'
p66
aS'@cloverc8:'
p67
aS"@Jim_Jordan's"
p68
aS'@mysticmimsy:'
p69
aS'@gregkellyfox5'
p70
aS'@MidasTouch'
p71
aS'@StephPrichard1'
p72
aS'@GreeneyesA78:'
p73
aS'@ShavaJu:'
p74
aS'@Paula_Deen'
p75
aS'@Belle_2016:'
p76
aS'@sneal50'
p77
aS'@TSettles14:'
p78
aS'@DinaAvon:'
p79
aS'@ltodd14:'
p80
aS'@PattiSolisDoyle:'
p81
aS'@The_Joey'
p82
aS'@Omarosa'
p83
aS'@marthamaccallum'
p84
aS'@2ndVoter:'
p85
aS'@tjtotty'
p86
aS'@LakersCanes305:'
p87
aS'@SecularBobby:'
p88
aS'@ModelCarolAlt'
p89
aS'@EKSpindler'
p90
aS'@Yea4Country'
p91
aS'@SummerSanders_:'
p92
aS'@golf4oregod:'
p93
aS'@FrontRowBrian'
p94
aS'@GlobalFlare:'
p95
aS'@JLW2380:'
p96
aS'@410DJTJ:'
p97
aS'@BI_TheLife"'
p98
aS'@ichicagoscott:'
p99
aS'@PaulRyanVP'
p100
aS'@communitypapers'
p101
aS'@leoncarmen:'
p102
aS'@cash8689'
p103
aS'@JohnnyG__62'
p104
aS'@GiulianaRancic-'
p105
aS'@JamesFrancoTV'
p106
aS'@tide_mann:'
p107
aS'@jlangdale:'
p108
aS'@McllroyRory'
p109
aS'@EdgeCGroup:'
p110
aS"@history's"
p111
aS'@aduanebrown:'
p112
aS'@hbo?'
p113
aS'@lotyworks:'
p114
aS'@MGSeneca:'
p115
aS'@b_coalition'
p116
aS'@Awizzel10:'
p117
aS'@janecat60:'
p118
aS'@SunSentinel:'
p119
aS'@scienceinvestme:'
p120
aS'@melpoluk.'
p121
aS'@dalasner'
p122
aS"@TigerWoods'"
p123
aS'@RaffleWinner'
p124
aS'@Katdhairstudio:'
p125
aS'@kalevans'
p126
aS'@Whoopsydoodle:'
p127
aS'@JetsetOnline:'
p128
aS'@MMcEwanBunkered:'
p129
aS'@el_juino:'
p130
aS'@StitchJonze:'
p131
aS'@Cher'
p132
aS'@trumpto'
p133
aS'@AdamSmith_USA'
p134
aS'@BowersAllyson:'
p135
aS'@BeauStack:'
p136
aS'@theBrianGentry'
p137
aS'@MariaBartiromo'
p138
aS'@soupman227:'
p139
aS'@nashvillebiz'
p140
aS'@RasmussenNews'
p141
aS'@DoralResort.'
p142
aS'@BinkyBoo415:'
p143
aS'@MCC_CT.'
p144
aS'@kobuck12:'
p145
aS'@DoralResort!'
p146
aS'@suereformer'
p147
aS'@BaseballHall!'
p148
aS'@okimani'
p149
aS'@guthrie_kelley:'
p150
aS'@DoralResort:'
p151
aS'@NearBatman:'
p152
aS'@OriginalArts1'
p153
aS'@BaseballHall.'
p154
aS'@jrsteinbauer:'
p155
aS'@jjhrkel:'
p156
aS'@FatRotty:'
p157
aS'@orangeeffect01:'
p158
aS'@DamacOfficial'
p159
aS'@NEO_SALAMANDER:'
p160
aS'@mariclaire81:'
p161
aS'@RICHMCLOUGHLIN:'
p162
aS'@StephenAtHome'
p163
aS'@SI_PeterKing:'
p164
aS'@SlimShiny82:'
p165
aS'@sacbee_news'
p166
aS'@STHRNWAYS:'
p167
aS'@trumplasvegas:'
p168
aS'@Jenil93_:'
p169
aS'@luisfern5.'
p170
aS'@TraceAdkins.'
p171
aS'@ShapiroJD:'
p172
aS'@LBH39:'
p173
aS'@TraceAdkins:'
p174
aS'@babyguts666'
p175
aS'@StephPrichard1:'
p176
aS'@signoresifis:'
p177
aS'@artlab:'
p178
aS'@MickelsonHat"'
p179
aS"@Trump_Charlotte's"
p180
aS'@Diamondjn1'
p181
aS'@BobLafleur1'
p182
aS'@WWlood13:'
p183
aS'@iuhoops2015'
p184
aS'@Erizzle05'
p185
aS'@DSpraguePGA:'
p186
aS'@SilverSharen:'
p187
aS'@OCAmericans:'
p188
aS'@surveyusa'
p189
aS'@philzentz:'
p190
aS'@newyorktimes'
p191
aS'@murphy756'
p192
aS'@myjr54:'
p193
aS'@TomEvans1972'
p194
aS'@mikemarchlik'
p195
aS'@000HermanSJr000:'
p196
aS'@jsilva74366572:'
p197
aS'@BarriMedia'
p198
aS'@GangsterDannyG1:'
p199
aS'@SamShahrooz'
p200
aS'@Lorianne01:'
p201
aS'@The_Truth_Sir:'
p202
aS'@SalamifiedRBX:'
p203
aS'@Miranda__Diplo:'
p204
aS'@GaRepublicans'
p205
aS'@ApprenticeNBC.'
p206
aS'@NecieWelch:'
p207
aS'@GatewayPundit'
p208
aS'@redcross.'
p209
aS'@WilyKayote'
p210
aS'@Daaahawks'
p211
aS'@philvettel'
p212
aS'@muhammadali'
p213
aS'@RogerClemens'
p214
aS'@CarrGaz'
p215
aS'@MrMet41:'
p216
aS'@Cknikita'
p217
aS'@mboyle1:'
p218
aS"@ApprenticeNBC'"
p219
aS'@SDanikKIMT:'
p220
aS'@drstardis:'
p221
aS'@SCProvingGround'
p222
aS'@pgachampionship'
p223
aS'@lance__montana:'
p224
aS'@Toure'
p225
aS'@Jetsetterdotcom'
p226
aS'@TheScotsman'
p227
aS'@SeanlaiC:'
p228
aS'@m__a__w'
p229
aS'@cjrj49:'
p230
aS'@BADfundraisers:'
p231
aS'@pdk73:'
p232
aS'@LiamMcCallum85:'
p233
aS'@MichaellW56:'
p234
aS'@akmackey'
p235
aS'@zero_nzyme:'
p236
aS'@fenwickrx:'
p237
aS'@imanthonyholmes:'
p238
aS'@garc8509:'
p239
aS'@financialpost:'
p240
aS'@OurColorado'
p241
aS'@freedomlives999'
p242
aS'@Bahleezy'
p243
aS'@rcpvideo:'
p244
aS'@DMurkowitz:'
p245
aS'@chrispilz'
p246
aS'@Hunterboss1996'
p247
aS'@SquawkBox'
p248
aS'@CherryWine_:'
p249
aS'@Samstwitch:'
p250
aS'@JoeMontana'
p251
aS'@TrumpPhillyNews'
p252
aS'@BLTPrimeMiami'
p253
aS'@cough93:'
p254
aS'@cdgrafics'
p255
aS'@GregWallace66'
p256
aS'@M_Sallis'
p257
aS'@BenBradleyABC7'
p258
aS'@EBlakeSpencer:'
p259
aS'@MattyD859'
p260
aS'@TSeay18'
p261
aS'@_Tsac_:'
p262
aS'@TrumpTO:'
p263
aS'@anniekineavy:'
p264
aS'@SMOpen'
p265
aS'@RusolYasin:'
p266
aS'@Trumpwinery'
p267
aS'@artinfodotcom'
p268
aS'@thenextlift:'
p269
aS'@Realdonaldtrump'
p270
aS'@mzulianix3:'
p271
aS'@MissUSA.....'
p272
aS'@CNN!'
p273
aS'@AppSame:'
p274
aS'@CNN.'
p275
aS'@AnnetteNavaret'
p276
aS'@jeffreykid44:'
p277
aS'@PCS1776:'
p278
aS'@AndyDostal:'
p279
aS"@TheTinaBeast's"
p280
aS'@FelixNunez249:'
p281
aS'@newsobserver'
p282
aS'@teddyschleifer'
p283
aS'@WesleyCooler3'
p284
aS'@KingRex9:'
p285
aS'@jdstravel:'
p286
aS'@KatieShow'
p287
aS'@mikewarner1976:'
p288
aS'@wsvn'
p289
aS'@advisorsource:'
p290
aS'@MONIKAKOVACS'
p291
aS'@Brangwyn'
p292
aS'@BC4040:'
p293
aS'@SatyrOnline:'
p294
aS'@RdotRae:'
p295
aS"@Oprah's"
p296
aS'@DannyZuker'
p297
aS"@ralphreed's"
p298
aS'@yankees'
p299
aS'@DONJUBBER:'
p300
aS'@JeffBirotweets:'
p301
aS'@Murppph:'
p302
aS'@David_Bossie'
p303
aS'@jvmesb:'
p304
aS'@IPSInvestments'
p305
aS'@prestonphillips:'
p306
aS'@zander_humes:'
p307
aS'@trumpnationalgolfla'
p308
aS'@NickTripp86:'
p309
aS'@ChristianVaux'
p310
aS'@America_Toronto:'
p311
aS'@VeneziaMatthew'
p312
aS'@Showstopper1020:'
p313
aS'@MacFarb'
p314
aS'@MrBiggles12345'
p315
aS'@denicarter:'
p316
aS'@FBIPressOffice,'
p317
aS'@katieshow'
p318
aS'@geeopee:'
p319
aS'@edincamera2'
p320
aS'@sinnerofa10shun'
p321
aS'@GoHarderFitness:'
p322
aS'@ALEKSMM'
p323
aS'@ZarkRiggs:'
p324
aS'@pamperedchicago:'
p325
aS'@mjnstn:'
p326
aS'@rae_ring:'
p327
aS'@squawkCNBC--tomorrow'
p328
aS'@GreatLakesBook'
p329
aS"@PaulRyan's"
p330
aS'@instapundit:'
p331
aS'@dailytelegraph'
p332
aS'@raven_claw2'
p333
aS'@PeaceOut4Hire:'
p334
aS'@Javi8104'
p335
aS'@tlfordxx:'
p336
aS'@barbgee68:'
p337
aS'@captraykelly'
p338
aS'@billyjowiggins:'
p339
aS'@GretaWire'
p340
aS'@DailyMirror'
p341
aS'@billywmerritt:'
p342
aS'@BrandonMcEwan:'
p343
aS'@13crazyjwd:'
p344
aS'@tripadvisor:'
p345
aS'@Rizz_Lizz'
p346
aS'@MissPSpencer:'
p347
aS'@Demontre4:'
p348
aS'@jeulrich:'
p349
aS'@Candynecklace2'
p350
aS'@nyguitars:'
p351
aS'@barrman:'
p352
aS'@mcgranejt'
p353
aS'@RakutenTravelJP'
p354
aS'@thineline4:'
p355
aS'@realitytvworld:'
p356
aS'@Grammat301:'
p357
aS'@scottinapac:'
p358
aS'@misskhan'
p359
aS'@re...'
p360
aS'@bobbymayojr'
p361
aS'@renee41961'
p362
aS'@MonicaCrowley'
p363
aS'@ET614:'
p364
aS'@NYPost_Willis'
p365
aS'@Bakinator21:'
p366
aS'@littlevd23'
p367
aS'@MiamiHerald'
p368
aS'@Gmo7'
p369
aS'@FTLifeArts:'
p370
aS'@vanillakissesxx:'
p371
aS'@UrplePingo'
p372
aS'@HowardKurtz'
p373
aS'@Hafizzuddin_MYU:'
p374
aS'@krdevine:'
p375
aS'@rp53pierce:'
p376
aS'@PDGreenwood:'
p377
aS'@redneckcowboy_1'
p378
aS'@pennjillette!'
p379
aS'@pennjillette.'
p380
aS'@bluebirdiefly3:'
p381
aS'@Badash78:'
p382
aS'@NolteNC:'
p383
aS'@SPORTSGURU77'
p384
aS'@wmur9"'
p385
aS'@ErinBurnett'
p386
aS'@pennjillette?'
p387
aS'@Ailor424:'
p388
aS'@pennjillette:'
p389
aS'@GovernorPerry"'
p390
aS'@JoyceGoodman64'
p391
aS'@KevinMartinRI'
p392
aS'@blayne_troy'
p393
aS'@LynneLeach:'
p394
aS'@MattGinellaGC'
p395
aS'@oledudstillgoin:'
p396
aS'@JerrySeinfeld'
p397
aS'@WendyWilliams:'
p398
aS'@Brock2120:'
p399
aS'@BillLMU'
p400
aS'@BOB_EWASHINGTON'
p401
aS'@calikal69:'
p402
aS'@RonnieDunn1164:'
p403
aS'@msaid10'
p404
aS'@MFMagOfficial'
p405
aS'@JPappasPR.,'
p406
aS'@BROONEYBROONEY:'
p407
aS'@CraigHume'
p408
aS'@dubenezic:'
p409
aS'@AdamEdinburg:'
p410
aS'@TarrKoziara:'
p411
aS'@TrumpCondosLV'
p412
aS'@rbeezybess"'
p413
aS'@KatieShow:'
p414
aS'@Sajiah:'
p415
aS'@TaynishaGray'
p416
aS'@Joan_Rivers'
p417
aS'@tonyrobbins'
p418
aS'@G0D_:'
p419
aS'@bagshotrow:'
p420
aS'@JWCarrr:'
p421
aS'@KeilaniK1:'
p422
aS'@HarryPlush:'
p423
aS'@ep_capital'
p424
aS'@KMoriconi:'
p425
aS'@WeekendInParis'
p426
aS'@LinFlies:'
p427
aS'@MARCMODE'
p428
aS'@BuzzFeedPSA'
p429
aS'@LynnGazaway:'
p430
aS'@MikeMuckleroy'
p431
aS'@kiss925toronto'
p432
aS'@champforrest'
p433
aS'@kvb423:'
p434
aS'@GGMaryP:'
p435
aS'@Kredo0'
p436
aS'@thehill'
p437
aS'@RealNinjetta'
p438
aS'@GroverWindham:'
p439
aS'@UberBurgers'
p440
aS'@BJKizer74:'
p441
aS'@Joe3957:'
p442
aS'@markraymond:'
p443
aS'@nieldi'
p444
aS'@doryainteriors,'
p445
aS'@jlangdale'
p446
aS'@MichaelNidiffer:'
p447
aS'@realDBP:'
p448
aS'@ellenmarie47:'
p449
aS'@AberdeenCC"'
p450
aS'@TuleTwilight'
p451
aS'@AberdeenCC,'
p452
aS'@JDiamond1:'
p453
aS'@Nick_Oros:'
p454
aS'@A_Beil'
p455
aS'@duncanebradbury:'
p456
aS'@GloriousTeepee'
p457
aS'@sdnc13:'
p458
aS'@Forbes:'
p459
aS'@Sjblueyes:'
p460
aS'@KDubbsies:'
p461
aS'@KieranLalor'
p462
aS'@ChesterStarr'
p463
aS'@happypaultk'
p464
aS'@AaCeallaigh:'
p465
aS'@krauthammer.'
p466
aS'@PageSix:'
p467
aS'@Vesparum'
p468
aS"@DiscoveryCanada--don't"
p469
aS'@MissSariBrooke'
p470
aS'@_laurenharding:'
p471
aS'@PabloRaffaele'
p472
aS'@azerny:'
p473
aS'@Doctor_Platek:'
p474
aS'@hannityshow'
p475
aS'@suddy25'
p476
aS'@richardmourdock"'
p477
aS'@Bobbysoo80:'
p478
aS'@StephanieWei:'
p479
aS'@dcexaminer:'
p480
aS'@jackhennessy12:'
p481
aS'@VirginiaDG:'
p482
aS'@MBell52:'
p483
aS'@pantysoaker420:'
p484
aS'@GolfDigestAU:'
p485
aS'@DerrinTexada'
p486
aS'@MorningConsult:'
p487
aS'@DrHardick:'
p488
aS'@ToddFouche1'
p489
aS'@HughPhartud:'
p490
aS'@pinkdaisey22:'
p491
aS'@TheRC3:'
p492
aS'@samflaherty_:'
p493
aS'@J_Lowry_:'
p494
aS'@nolanitenyc'
p495
aS'@frankshow'
p496
aS'@JerryYanks:'
p497
aS'@haventravel:'
p498
aS'@theblaze'
p499
aS'@ZDavi14:'
p500
aS'@salpie:'
p501
aS'@krystalball'
p502
aS'@USATOpinion'
p503
aS'@DanielaMarino:'
p504
aS'@SimsDaniel:'
p505
aS'@hotair25159:'
p506
aS'@OraTV'
p507
aS'@ElianaBenador:'
p508
aS'@harry_vickers:'
p509
aS'@thomas_waller:'
p510
aS'@BRAD_R0BINS0N:'
p511
aS'@JeffJlpa1"'
p512
aS'@MichaelArrante'
p513
aS'@ColorMeRed'
p514
aS'@patriots'
p515
aS'@pand'
p516
aS"@si_golf's"
p517
aS'@joelbernstein:'
p518
aS'@JeffJlpa1:'
p519
aS'@SunshineKhali:'
p520
aS'@Jpicc1:'
p521
aS'@GovChristie'
p522
aS'@TexasArmyMom18:'
p523
aS'@jamison1013gma1:'
p524
aS'@iAmerican'
p525
aS'@DoremusJ:'
p526
aS'@EpilepsyS'
p527
aS'@Scully64'
p528
aS'@TrumpCollection'
p529
aS'@zack_21:'
p530
aS'@AliasHere:'
p531
aS"@Lord_Sugar's"
p532
aS'@ehShaun:'
p533
aS'@wsquared58'
p534
aS'@PGAChampionship,'
p535
aS'@HayJayP26'
p536
aS'@GeorgeClooney'
p537
aS'@FoxBusiness:'
p538
aS'@GQMagazine'
p539
aS'@MatthewJEllis2'
p540
aS'@MittRomney--people'
p541
aS'@FoxBusiness.'
p542
aS'@GameWeiver:'
p543
aS'@AdriannaMarie:'
p544
aS'@TheHaig16:'
p545
aS'@Zaranawabzadi:'
p546
aS'@OnwatinWhaler'
p547
aS'@NBCNewYork'
p548
aS'@WhiteHouse'
p549
aS'@shanevanderhart:'
p550
aS'@FatherSiisi:'
p551
aS'@BrandiHarmon'
p552
aS'@SCOTTHALLNWO'
p553
aS'@cspan'
p554
aS'@MelaniaTrump'
p555
aS'@RasmussenPoll'
p556
aS'@theviewtv--by'
p557
aS'@nbcstore:'
p558
aS'@OhNoImFromOhio:'
p559
aS'@doublet7:'
p560
aS'@10Thurst:'
p561
aS'@golflessondubai'
p562
aS'@BrocktonConwell'
p563
aS'@Nougatine_NYC:'
p564
aS'@HN_JAD'
p565
aS'@StephanieKrista:'
p566
aS'@lildarling928:'
p567
aS'@WinstonS6079W'
p568
aS'@tonykatz'
p569
aS'@TrumpRink'
p570
aS'@JakfromBk'
p571
aS'@sandykjack:'
p572
aS'@ardow:'
p573
aS'@FoxNews?'
p574
aS'@Deny62Wilson:'
p575
aS'@FoxNews:'
p576
aS'@cerrabella:'
p577
aS"@FoxNews'"
p578
aS'@TeamSowards:'
p579
aS'@FoxNews"'
p580
aS'@FoxNews!'
p581
aS'@camarrone'
p582
aS'@FoxNews.'
p583
aS'@gop'
p584
aS'@FoxNews,'
p585
aS'@grantrobertb:'
p586
aS'@PaulRyanVP"'
p587
aS'@AndrewKirell'
p588
aS'@RealJohnAnthon:'
p589
aS'@Klyushina_ENG:'
p590
aS'@WondHerful:'
p591
aS'@WestwoodLee:'
p592
aS'@jordanallen21:'
p593
aS'@HudsonMOD?'
p594
aS'@vanityfair'
p595
aS'@VDIT13:'
p596
aS'@vlasaro:'
p597
aS'@joehos18:'
p598
aS'@DavidDCarpenter'
p599
aS'@MichaelPhelps"'
p600
aS'@faithcjohnson:'
p601
aS'@KingofRough:'
p602
aS'@mj_lee'
p603
aS'@fergton:'
p604
aS'@spewrange'
p605
aS'@NFLONFOX'
p606
aS'@genemarks'
p607
aS'@DigitalPianoMan:'
p608
aS'@nflcommish"'
p609
aS'@Lord'
p610
aS'@nflcommish.'
p611
aS'@BreitbartSports'
p612
aS'@dashing1995:'
p613
aS'@wtfagain'
p614
aS'@Bobzilla305:'
p615
aS'@disneycuty'
p616
aS'@TheBig_Easy'
p617
aS'@GeoffShac:'
p618
aS'@Mike_Sherwood03:'
p619
aS"@mcuban's"
p620
aS'@twendencyUSA'
p621
aS'@luckydoginwesty:'
p622
aS'@CinderellaMan2:'
p623
aS'@helfystyle:'
p624
aS'@pdxnancy:'
p625
aS'@NiccoBigalli:'
p626
aS'@RICHNYJETS'
p627
aS'@TeamBobbyEwing'
p628
aS'@iCheko_LOM'
p629
aS'@pskibbe:'
p630
aS'@YankeesJC1:'
p631
aS'@BillsMafia'
p632
aS'@CoachAbda'
p633
aS'@PGongola:'
p634
aS'@DavidPerez728'
p635
aS'@reza_rezvani:'
p636
aS'@tombrokaw'
p637
aS'@FITNsummit!.'
p638
aS'@kevin47881:'
p639
aS'@Jay_Severin'
p640
aS'@rbeezybess'
p641
aS'@iStartTrend.'
p642
aS'@charliemassie:'
p643
aS'@jameshohmann'
p644
aS'@nytimesworld'
p645
aS'@hillarysusans:'
p646
aS'@linnie13:'
p647
aS'@kingsthings'
p648
aS'@Platinumevent:'
p649
aS'@KennethLaguer:'
p650
aS'@emtitus:'
p651
aS'@choo...'
p652
aS'@JusticeRoberts'
p653
aS'@THEGaryBusey?'
p654
aS'@IamEbbot:'
p655
aS'@AROD'
p656
aS'@kaiame:'
p657
aS'@bendreyfuss:'
p658
aS'@THEGaryBusey!'
p659
aS'@GeoScarborough'
p660
aS'@fox'
p661
aS'@BristolsBlog:'
p662
aS'@traceadkins'
p663
aS'@NYCTiggy'
p664
aS'@Jarod_Pitmon10:'
p665
aS'@palemamba713:'
p666
aS'@CBS19:'
p667
aS'@erictrumpfdn'
p668
aS'@CelebFightNight'
p669
aS'@PROestateagent:'
p670
aS'@bonz21'
p671
aS'@Lo7us_:'
p672
aS'@BarrieLouise'
p673
aS'@WalterOzaraga'
p674
aS'@RayKelly'
p675
aS'@babyylissa:'
p676
aS'@SouthernJetNC:'
p677
aS'@jmuoio88:'
p678
aS'@jimmyfallon:'
p679
aS'@faykellytuncay:'
p680
aS'@TheEvanGruver'
p681
aS'@countrygurl4747:'
p682
aS'@golftalkamerica:'
p683
aS'@ColinOregon/'
p684
aS'@leebestt:'
p685
aS'@ericksonrt05:'
p686
aS'@EAikenz:'
p687
aS'@irisodle:'
p688
aS'@MikeMessina_:'
p689
aS'@burger__meister'
p690
aS'@bakerjb19'
p691
aS'@realLucasDuffy'
p692
aS'@NASCAR_FDN'
p693
aS'@carloguderian'
p694
aS'@managerct25:'
p695
aS'@NBCBlacklist.'
p696
aS'@msinger456:'
p697
aS'@josephmcasey:'
p698
aS'@Trill_Blowa:'
p699
aS'@ebrumby'
p700
aS'@pkitzke:'
p701
aS'@tudybone4:'
p702
aS'@AIPAC'
p703
aS'@cjwthefishermen:'
p704
aS'@eruditetina'
p705
aS'@Dan__Crocker'
p706
aS'@Aj_baylor'
p707
aS'@Stann1s:'
p708
aS'@ZacKing30'
p709
aS'@IamSloany:'
p710
aS'@lefthandedrant:'
p711
aS'@vincentko'
p712
aS'@gbla:'
p713
aS'@wolfblitzer'
p714
aS'@GolfMagazine'
p715
aS'@moviesharkd:'
p716
aS'@robsine'
p717
aS'@OUTOF_3_9_0:'
p718
aS'@Miss'
p719
aS'@Macys.com"'
p720
aS'@DanaPerino'
p721
aS'@AlisynCamerota'
p722
aS'@scheekster:'
p723
aS'@codymangano'
p724
aS'@Houst_:'
p725
aS'@BestBergerEver'
p726
aS'@brad_mcmichael'
p727
aS'@TrumpPhillyGM'
p728
aS'@gregshoes69'
p729
aS'@PGAChampionship'
p730
aS'@imFRANGtastic:'
p731
aS'@NuccioKing:'
p732
aS'@JakeJuliot'
p733
aS'@GreatmakeupKate:'
p734
aS'@BoydDee:'
p735
aS'@realliamager:'
p736
aS'@kellyfrias:'
p737
aS'@GarySiniseFound'
p738
aS'@arsenioofficial?'
p739
aS'@Schwantz72:'
p740
aS'@RamboFo'
p741
aS"@FBI's"
p742
aS'@Jahbalon:'
p743
aS'@rockenmoma:'
p744
aS'@SheridanBetts:'
p745
aS'@DagnyRed:'
p746
aS'@mr_al_131'
p747
aS'@sirenasola:'
p748
aS'@Dan_Treadway:'
p749
aS'@james_dodenc:'
p750
aS'@Real_Tess_Bloom:'
p751
aS'@_GOLD4MONEY:'
p752
aS'@BHLiberty'
p753
aS'@JefePinal:'
p754
aS'@PGAGrandSlam!'
p755
aS'@BBCScotlandNews:'
p756
aS'@annnotari13:'
p757
aS'@RealRoesch:'
p758
aS'@PGAGrandSlam.'
p759
aS'@gaphotoman:'
p760
aS'@RealHotwaffles'
p761
aS"@coltables's"
p762
aS'@Nodakgus:'
p763
aS'@ConradHiltonNY'
p764
aS'@SkiingElvis'
p765
aS'@trumpscotland'
p766
aS'@mc'
p767
aS'@taylorswift13'
p768
aS'@akawhit1:'
p769
aS'@andersengell'
p770
aS'@VickyBrush'
p771
aS'@emilymistretta:'
p772
aS'@balloon_69'
p773
aS'@WarrenBuffett,'
p774
aS"@WWE's"
p775
aS'@Red_Head_Ed'
p776
aS'@_Aleshaxo:'
p777
aS'@LaytonJPalmer:'
p778
aS'@LKDUSA'
p779
aS'@sophiegonerogue'
p780
aS'@TheDailyShow'
p781
aS'@TexasGOP'
p782
aS'@FoxNews'
p783
aS'@txbpd:'
p784
aS'@PeaceIsWeakness'
p785
aS'@niecey911logan'
p786
aS'@karlbstumpf'
p787
aS'@Pattycake77777'
p788
aS'@OwenFetnon'
p789
aS'@DaltonStoltz:'
p790
aS'@TonyInOkla2015:'
p791
aS'@WillDangelo:'
p792
aS'@ApprenticeNBC'
p793
aS'@piersmorgan'
p794
aS'@TrumpFerryPoint.'
p795
aS'@TrumpFerryPoint!'
p796
aS'@paulfincher2:'
p797
aS'@bldrnr69:'
p798
aS'@ChrisUhrig.'
p799
aS'@TrumpFerryPoint:'
p800
aS'@TedatACA:'
p801
aS'@gretawire'
p802
aS'@jessilin02'
p803
aS'@seajay2uk'
p804
aS'@ElvisFever:'
p805
aS'@MamaGlove:'
p806
aS'@ABFalecbaldwin'
p807
aS'@Reince:'
p808
aS'@JamesDriscolli:'
p809
aS'@MrMarin88'
p810
aS'@frydguy:'
p811
aS'@GovChristie.'
p812
aS'@KeithR69'
p813
aS'@Hunterboss1996:'
p814
aS'@jamescoleman07:'
p815
aS'@sanmiguel_23'
p816
aS'@TheFive'
p817
aS'@STL_Blonde'
p818
aS'@JimmyLakey:'
p819
aS'@Manos_Panos'
p820
aS'@burger__meister:'
p821
aS'@AlexPappasDC'
p822
aS'@janieRNER:'
p823
aS'@AugustaNational'
p824
aS'@west...'
p825
aS'@JourdanLHowell:'
p826
aS'@ashbakali:'
p827
aS'@JeremyrLack:'
p828
aS'@DigGower'
p829
aS'@BB1959_:'
p830
aS'@MajideDan:'
p831
aS'@MomMom:'
p832
aS'@cwide12:'
p833
aS'@Gfeorg:'
p834
aS'@GlennHowerton:'
p835
aS'@MissUSA!'
p836
aS'@MalachiNorris'
p837
aS'@ZStr8Up:'
p838
aS'@chiefsnation25:'
p839
aS'@TheGuyFalcone:'
p840
aS'@VinceMcMahon'
p841
aS'@Catherine1840:'
p842
aS'@rCoolJR:'
p843
aS'@MissUSA:'
p844
aS'@j_cohl:'
p845
aS'@youngsellz4:'
p846
aS'@_MarcoGenovese'
p847
aS'@kevin47881'
p848
aS'@JoeDimyan:'
p849
aS'@raven_claw2:'
p850
aS'@gatewaypundit."'
p851
aS'@billf227:'
p852
aS'@Marco_Masucci:'
p853
aS'@farm_mom'
p854
aS'@racrboi90'
p855
aS'@KyleMcCall4'
p856
aS'@thespinepillow:'
p857
aS'@nypost'
p858
aS'@ZeeNazi:'
p859
aS'@PGATOUR:'
p860
aS'@Chefant22271:'
p861
aS'@warrencasse:'
p862
aS'@PGATOUR.'
p863
aS'@tlbasnight:'
p864
aS'@joshuetree'
p865
aS'@djf123:'
p866
aS'@realmarkjackson:Trump'
p867
aS'@pastapp:'
p868
aS'@MartinDaryn:'
p869
aS'@SlwStdySque'
p870
aS'@realDonaldTrump...'
p871
aS'@BurkeInc:'
p872
aS'@DebrachoPaola:'
p873
aS'@LouFerrigno'
p874
aS'@PizzaPartyBen:'
p875
aS'@justrelaxfornow:'
p876
aS'@EricTrumpFdn:'
p877
aS'@RyanPaolucci:'
p878
aS'@suzannesaxx:'
p879
aS'@SamShahrooz:'
p880
aS'@The_Anti_Fox:'
p881
aS'@EricTrumpFdn.'
p882
aS'@slucch24'
p883
aS'@devin199722:'
p884
aS'@EricTrumpFdn!'
p885
aS'@DohaBen'
p886
aS'@EricTrumpFdn"'
p887
aS'@leeboggs'
p888
aS'@FlightAJ:'
p889
aS'@michaelpleahy'
p890
aS'@pacsgirl36'
p891
aS'@CrainsChicago'
p892
aS'@carlotalorenabr'
p893
aS'@MittRomney.Even'
p894
aS'@tanwexy'
p895
aS'@BarackObama--he'
p896
aS'@driftaguy:'
p897
aS'@MissTeenUSA'
p898
aS'@sloanbunton:'
p899
aS'@chriswerner1988:'
p900
aS'@JackHMoran:'
p901
aS'@cptnloco262:'
p902
aS'@millman85:'
p903
aS'@FranMFarber:'
p904
aS'@MaxKnowsAll'
p905
aS'@Omaha_Tiger:'
p906
aS'@rwgooch:'
p907
aS'@greta'
p908
aS'@PuertoRicoOpen:'
p909
aS'@MittRomney:'
p910
aS'@montgomeriefdn'
p911
aS'@fud31'
p912
aS'@vidortwitt:'
p913
aS'@kverb12345:'
p914
aS'@CliffsofMoher1'
p915
aS'@daltonkats'
p916
aS'@SCJBretH:'
p917
aS'@Lawrence"'
p918
aS'@HighTide1989'
p919
aS'@HenschOnTheHill:'
p920
aS'@CherylMossTyler:'
p921
aS'@washcaps.'
p922
aS'@GStephanopoulos'
p923
aS'@bean1227:'
p924
aS'@ReaIOsmelSousa'
p925
aS'@brownteeth:'
p926
aS'@rexarrowfilms:'
p927
aS'@TravelShamrock'
p928
aS'@TheGaryBusey:'
p929
aS'@ukcarioca:'
p930
aS'@MLeitzmann:'
p931
aS'@A380Jet:'
p932
aS'@TammieHarrison'
p933
aS'@lisalampanelli?:'
p934
aS'@top40mogul'
p935
aS'@rwildewrites:'
p936
aS'@RealBHorowitz:'
p937
aS'@BellaNYCMag:'
p938
aS'@sweetbaboo1968:'
p939
aS'@JFordEureka:'
p940
aS'@morangary61:'
p941
aS'@TheBingle:'
p942
aS'@guardian'
p943
aS'@irisodle'
p944
aS'@1NatalieNatalie:'
p945
aS'@mmanoff:'
p946
aS'@EllonTimesKenny:'
p947
aS'@kelseyalxandraa'
p948
aS'@newhopenchange:'
p949
aS'@agcaddauan:'
p950
aS'@BenKilzer:'
p951
aS'@PapiGonzalez3'
p952
aS'@anotherTRUMPvot:'
p953
aS'@chrispilz:'
p954
aS'@PeteyProstate:'
p955
aS'@emanuelcenerini:'
p956
aS'@sufferlonger:'
p957
aS'@usa67us'
p958
aS'@t_thabane'
p959
aS'@penows'
p960
aS'@megynkelly:'
p961
aS'@ChristianInst'
p962
aS'@monkiekaty:'
p963
aS'@eScarry'
p964
aS'@SHAWSHANK5:'
p965
aS'@AhmedBawazir:'
p966
aS'@HCannonball:'
p967
aS'@BillsMafia_G107'
p968
aS'@megynkelly.'
p969
aS'@megynkelly,'
p970
aS'@MacPluto12:'
p971
aS'@BellaNYCMag'
p972
aS'@Theramenes:'
p973
aS'@TheMrBrownstone'
p974
aS'@athompson362:'
p975
aS'@australian:'
p976
aS'@APinv'
p977
aS'@Pete27293:'
p978
aS'@samraj25:'
p979
aS'@DocShanahan1:'
p980
aS'@greece'
p981
aS'@FlaGovScott'
p982
aS'@_Warrendya_'
p983
aS'@ELewie1994:'
p984
aS'@Mr_Smoooth'
p985
aS'@DCnumerology:'
p986
aS'@Joe_Sutt:'
p987
aS'@JimmyWalkerPGA:'
p988
aS'@katie_glueck'
p989
aS'@blake1swanson'
p990
aS'@Chris_LaPenta:'
p991
aS'@fivediamond'
p992
aS'@Edm5VanZero:'
p993
aS'@Reuschal:'
p994
aS'@parisitony'
p995
aS'@michaeljacks_ag:'
p996
aS'@eddiebrognano:'
p997
aS'@s_salmons:'
p998
aS'@dc1a7ce3d7f7402:'
p999
aS'@sjketchen'
p1000
aS'@angiecallahan4:'
p1001
aS'@C_waitforit_J'
p1002
aS'@KPRCmboyle:'
p1003
aS'@bradleymenglin'
p1004
aS'@tedbishop38pga'
p1005
aS'@Max_Fehrs:'
p1006
aS'@justivanjames:'
p1007
aS'@pbaratelli:'
p1008
aS'@TFleming11:'
p1009
aS'@baltimoresun'
p1010
aS'@BobPriceBBTX:'
p1011
aS'@RealDougClark'
p1012
aS'@MarlenaWells'
p1013
aS'@illest_beats:'
p1014
aS'@sdoocy,'
p1015
aS'@Higgie0:'
p1016
aS'@Maryannzfoster'
p1017
aS'@nyrr:'
p1018
aS"@AP's:"
p1019
aS'@Letterman!'
p1020
aS'@danshaw2012'
p1021
aS'@CVergara32:'
p1022
aS'@MikeDGarrison'
p1023
aS'@trumpwinery'
p1024
aS'@mallorybeck17'
p1025
aS'@SarahPalinUSA'
p1026
aS'@USATODAY'
p1027
aS'@DamonCanel'
p1028
aS'@menabazz_:'
p1029
aS'@hillarysusans'
p1030
aS'@ClintonIYH:'
p1031
aS'@Natures_Voice'
p1032
aS'@growingupbryce'
p1033
aS'@CasaMadison'
p1034
aS'@CJohnson623:'
p1035
aS'@OCChoppers'
p1036
aS'@SpecialReport.'
p1037
aS'@DebbieGibson'
p1038
aS'@greggutfeld.'
p1039
aS'@Kenny_Wallace'
p1040
aS'@terreldactyl:'
p1041
aS'@StefThomason'
p1042
aS'@LucyInTheSky61:'
p1043
aS'@DAM615:'
p1044
aS'@tpoulos:'
p1045
aS'@Patti_Wavinak:'
p1046
aS'@JimTalent'
p1047
aS'@TheguhMantap'
p1048
aS'@MaryHodgins:'
p1049
aS'@robsine:'
p1050
aS'@KiltedKrew'
p1051
aS'@dennisrodman:'
p1052
aS'@BarackObama--yesterday'
p1053
aS'@dennisrodman.'
p1054
aS'@dennisrodman,'
p1055
aS'@WayneDupreeShow:'
p1056
aS'@sherrimarie73'
p1057
aS'@casey1137:'
p1058
aS'@usopen'
p1059
aS'@mdhmdhmdh:'
p1060
aS'@Official1MCD'
p1061
aS'@TristacksEff:'
p1062
aS'@laurenhuston:'
p1063
aS'@ForbesInspector!'
p1064
aS'@ForbesInspector"'
p1065
aS'@aclutter51'
p1066
aS'@ceovince:'
p1067
aS'@saints_74:'
p1068
aS'@NBCNightlyNews'
p1069
aS'@ForbesInspector,'
p1070
aS'@Noe'
p1071
aS'@ForbesInspector.'
p1072
aS'@adamcarolla'
p1073
aS'@RandyRolph:'
p1074
aS'@mariashriver'
p1075
aS'@AceMan65'
p1076
aS'@CNNPR:'
p1077
aS"@ChicagoTribune's"
p1078
aS'@phate71'
p1079
aS'@craigdevlin:'
p1080
aS'@RayYedman:'
p1081
aS'@CIACulinary'
p1082
aS'@pare900:'
p1083
aS'@gogobot:'
p1084
aS'@CamaroDays'
p1085
aS'@ashk'
p1086
aS'@rtesta'
p1087
aS'@Hometownlife:'
p1088
aS'@WeskusOuma:'
p1089
aS'@tx_shaun'
p1090
aS'@zak_boxer'
p1091
aS'@lullintheaction:'
p1092
aS'@italy2320:'
p1093
aS'@mikerobertson24:'
p1094
aS'@AndrewMillerKC'
p1095
aS'@darhowklo'
p1096
aS'@trumpdoral'
p1097
aS'@rea...'
p1098
aS'@Blitz2Fr:'
p1099
aS'@maathewdavis:'
p1100
aS'@Turnberrybuzz'
p1101
aS'@LettyNTX:'
p1102
aS'@TPInsidr'
p1103
aS'@BBCNews'
p1104
aS'@MLeitzmann'
p1105
aS'@angelofleven:'
p1106
aS'@Sethanatorr:Trump'
p1107
aS'@pressjournal:'
p1108
aS'@70sBaseball'
p1109
aS'@DaveBratVA7th'
p1110
aS'@washpostjobs:'
p1111
aS'@Humbert_Tesla:'
p1112
aS'@KimKardashian--I'
p1113
aS'@SRQRepublicans'
p1114
aS'@WWEmarissa_54:'
p1115
aS'@5dragons:'
p1116
aS'@FreetownSpurs:'
p1117
aS"@AlexSalmond's"
p1118
aS'@JayRit'
p1119
aS'@AlexLevandoski:'
p1120
aS'@miamicom'
p1121
aS'@KBrocking'
p1122
aS'@AndrewSNicoll:'
p1123
aS'@CherylPotgieter:'
p1124
aS'@john_siracusa'
p1125
aS'@chrisinspfld:'
p1126
aS'@Mr_Smoooth:'
p1127
aS'@matt_marcolini'
p1128
aS'@TaylahhKane:'
p1129
aS'@JoshBurrnett:'
p1130
aS'@Jhonatanjansson:'
p1131
aS'@SovAdjEast:'
p1132
aS'@kdawnpatterson:'
p1133
aS'@PPDNews:'
p1134
aS'@realdonaldtrump:'
p1135
aS'@krauthammer'
p1136
aS'@realdonaldtrump"'
p1137
aS'@tshakro'
p1138
aS"@realdonaldtrump'"
p1139
aS"@Gretawire's"
p1140
aS"@gretawire-I'll"
p1141
aS'@realdonaldtrump,'
p1142
aS'@BrianCstandsup:'
p1143
aS'@designergirla'
p1144
aS'@18_4_LIFE:'
p1145
aS'@Matt_The_Stud:'
p1146
aS"@frankgaffney's"
p1147
aS'@MartianDTrump'
p1148
aS"@VinceMcMahon's"
p1149
aS'@BeccaPiano'
p1150
aS'@AmandaTMiller.'
p1151
aS'@dcolon2112:'
p1152
aS'@AnitaActually'
p1153
aS'@andreamanco95:'
p1154
aS'@ovobeckford2:'
p1155
aS'@JordanPolitics:'
p1156
aS'@BenCooner'
p1157
aS'@DanyellaAngel'
p1158
aS'@KWWL'
p1159
aS'@AmSpec'
p1160
aS'@alacyyy:'
p1161
aS'@JBradleyDesign1'
p1162
aS'@rebeccagberg:'
p1163
aS'@JudgeJeanine'
p1164
aS'@JonScottFNC:'
p1165
aS'@WeGotEd'
p1166
aS'@airforce2100:'
p1167
aS'@imprimis310:'
p1168
aS'@LongLiveConnor:'
p1169
aS"@MittRomney's"
p1170
aS'@nickvitello'
p1171
aS'@adb1707'
p1172
aS'@fundanything'
p1173
aS'@GodfreyGR'
p1174
aS'@jlynn_12'
p1175
aS'@makeitvisible'
p1176
aS'@2beautiful1:'
p1177
aS'@LungQuest:'
p1178
aS'@madisongesiotto'
p1179
aS'@aberdeedshire'
p1180
aS'@moses11211:'
p1181
aS'@1a0e358348904f5:'
p1182
aS'@StJude'
p1183
aS'@jscottcharlton:'
p1184
aS'@claramarks'
p1185
aS'@TheDonnaSummer'
p1186
aS'@pacsgirl36:'
p1187
aS'@NBCSportsRadio'
p1188
aS'@christineinsatx'
p1189
aS'@Newsmax_Media,'
p1190
aS'@KingJames'
p1191
aS'@AC360:'
p1192
aS'@SammartinoBruno'
p1193
aS'@Newsmax_Media:'
p1194
aS"@VanityFair's"
p1195
aS'@noturbine:'
p1196
aS'@RichardAllen__:'
p1197
aS'@LittmannRaymond'
p1198
aS'@hailey_hustlerr'
p1199
aS'@ElvinBerndt:'
p1200
aS'@ericjgiroux:'
p1201
aS'@wwwildcat:'
p1202
aS'@trumthomp'
p1203
aS'@BradHeat:'
p1204
aS'@RonaldRosenthal'
p1205
aS'@11SHEILA11'
p1206
aS'@DavidInspired:Trump'
p1207
aS'@bedard_nancy:'
p1208
aS'@NeilMidgley'
p1209
aS'@tx_shaun:'
p1210
aS'@Ziggi92'
p1211
aS'@TheTonyLee:'
p1212
aS'@Doral'
p1213
aS'@JNSworldnews'
p1214
aS'@TXRoquette:'
p1215
aS'@SavageNation.'
p1216
aS'@JVince81:'
p1217
aS'@SpikeLee'
p1218
aS'@nate_rogerthat:'
p1219
aS'@MICHELLE_GRACE_:'
p1220
aS'@samtrisi'
p1221
aS'@Drake4444444'
p1222
aS'@DDiTarant:'
p1223
aS'@Theshingleguy:'
p1224
aS'@maxine41823:'
p1225
aS'@hallmarkm1'
p1226
aS'@CrustyRunner:'
p1227
aS'@TanmayShekhawat:'
p1228
aS'@BretBaier'
p1229
aS'@HowardStern"'
p1230
aS'@HowardStern!'
p1231
aS'@ESunnyloft:'
p1232
aS'@melaniebatley'
p1233
aS'@SpeakerBoehner'
p1234
aS'@HowardStern.'
p1235
aS'@ayrshirepost:'
p1236
aS'@sisson_travis:'
p1237
aS'@mikerotondo86'
p1238
aS'@benpobjie:'
p1239
aS'@splaisance:'
p1240
aS'@c_shepler:'
p1241
aS'@Rosemarrisa'
p1242
aS'@FakeBriWilliams'
p1243
aS'@c_hanson800'
p1244
aS'@MarianoQCasilum:'
p1245
aS'@DRUDGE_REPORT:'
p1246
aS'@AndyBarovick'
p1247
aS'@ptmaher1:'
p1248
aS'@taylorj0103:'
p1249
aS'@LinFlies'
p1250
aS'@puddlejumper365'
p1251
aS'@cotyybaby'
p1252
aS'@2012twit:'
p1253
aS'@Gibbons2012Alex:'
p1254
aS"@JrzyJoePiscopo's"
p1255
aS'@DJCastiello'
p1256
aS'@MittRomnney'
p1257
aS'@ScutPls'
p1258
aS'@espn,'
p1259
aS'@ALEKSMM:'
p1260
aS'@ChrisRuddyNMX'
p1261
aS'@JasonHirschhorn:'
p1262
aS'@RedRoof65'
p1263
aS'@mforbes326:'
p1264
aS'@MiamiHEAT'
p1265
aS'@gameexpress1'
p1266
aS'@BCLesClefsdOr:'
p1267
aS'@GCMorningDrive!'
p1268
aS'@DNRuffin:'
p1269
aS'@danielrogerson:'
p1270
aS'@GCMorningDrive:'
p1271
aS'@MyLifeIsLibby:'
p1272
aS'@fugle_tony_328:'
p1273
aS'@Annmajkrzak:'
p1274
aS'@jdistaso:'
p1275
aS'@commercial_nyo'
p1276
aS'@dhtherex'
p1277
aS"@SenatorReid's"
p1278
aS'@DannyOjedaOKC'
p1279
aS'@raymeem:'
p1280
aS'@DebysinghCindy'
p1281
aS'@dbpresswire'
p1282
aS'@fitbafan:'
p1283
aS'@snudge11'
p1284
aS'@kristensharpe30:'
p1285
aS'@rcpvideo'
p1286
aS'@DanilluHermman'
p1287
aS'@TeddiLocke'
p1288
aS'@jacknicklaus'
p1289
aS'@gary4205'
p1290
aS'@NorthvillePatch:'
p1291
aS'@realKeithPatton:'
p1292
aS'@johnmarzan:'
p1293
aS'@datriggakeithh:'
p1294
aS'@hunterstiehler:'
p1295
aS'@HowardSternJohn'
p1296
aS'@LisaNoelBryson:'
p1297
aS'@Shelia1965A:'
p1298
aS'@ThulisaKanzi'
p1299
aS'@ShaneJoseph:'
p1300
aS'@WMUR9:'
p1301
aS'@ritholtz:'
p1302
aS'@FOXSports:'
p1303
aS'@footballguru99:'
p1304
aS'@dlhanno64:'
p1305
aS'@JoeFraga:'
p1306
aS'@LIgal629:'
p1307
aS'@jeffanie'
p1308
aS'@Ctwilki'
p1309
aS'@TheRealRoseanne'
p1310
aS'@KathleenSebelius'
p1311
aS'@freddymelendez.'
p1312
aS'@SportsTalkCSN:'
p1313
aS'@papaouch:'
p1314
aS'@AKudej25:'
p1315
aS'@LPGA:'
p1316
aS'@BluePrintBullie'
p1317
aS'@icewine911:'
p1318
aS'@OCChoppers:'
p1319
aS'@paulinegk7.'
p1320
aS'@HaKolBzman'
p1321
aS'@AFCAllaeldein'
p1322
aS'@TaraHill5'
p1323
aS'@heytana.'
p1324
aS'@Arseniohall'
p1325
aS'@SiphoSimelane'
p1326
aS'@paulmilton28:'
p1327
aS'@BreitbartVideo'
p1328
aS'@WrestleFact'
p1329
aS'@kmac5911:'
p1330
aS'@Drew4Diamond'
p1331
aS'@gracemtroupe:'
p1332
aS'@Drudge_Report'
p1333
aS'@IBDinvestors:'
p1334
aS'@StephenBaldwin7'
p1335
aS'@TBI_ArmyWife:'
p1336
aS'@bitchforshort'
p1337
aS'@oppvillagelv:'
p1338
aS'@Apple'
p1339
aS'@MaryPortwine:'
p1340
aS'@RicardoHernanG'
p1341
aS'@flowergirl56'
p1342
aS'@SharylAttkisson'
p1343
aS'@sofitocca:'
p1344
aS'@NeilECollins'
p1345
aS'@MichaelCarl7:'
p1346
aS'@Klyushina_ENG'
p1347
aS'@NYGiants'
p1348
aS'@cadigirl13:'
p1349
aS'@meenah83:'
p1350
aS'@tdg_tom:'
p1351
aS'@zengadfly:'
p1352
aS'@thembazoko1:'
p1353
aS'@SquawkCNBC--7:30'
p1354
aS'@politizine:'
p1355
aS'@DaveCC1109:'
p1356
aS'@GolfByGrayson:'
p1357
aS"@DoralResort's"
p1358
aS'@AmbassadorRice'
p1359
aS'@RichLowry'
p1360
aS'@CoachJMan:'
p1361
aS'@HoneyBadger210:'
p1362
aS'@destiny_113'
p1363
aS'@KevinGalyon:'
p1364
aS'@jonnati77:'
p1365
aS'@BOBonTCN'
p1366
aS'@MandyGomez01:'
p1367
aS'@mirzahatk:'
p1368
aS'@RealSonnyNewman'
p1369
aS'@DavidHerjavec'
p1370
aS'@Mrsconz:'
p1371
aS'@Entrepreneur'
p1372
aS'@TomWatsonPGA'
p1373
aS'@LeoDiCaprio'
p1374
aS'@ali_nugent'
p1375
aS'@enole28:'
p1376
aS'@airpacee:'
p1377
aS'@joannakirshner:'
p1378
aS'@trishuhl:'
p1379
aS'@Realistboutmine'
p1380
aS'@attnyc'
p1381
aS'@ElmarosuElvin'
p1382
aS'@FFXFamilyFun:My'
p1383
aS'@JSongseeker:'
p1384
aS'@_KateMorgan_:'
p1385
aS'@Live5News'
p1386
aS'@PhilStephen'
p1387
aS'@CommissionerKelly.'
p1388
aS'@SachaBaronCohen'
p1389
aS'@keiththoms'
p1390
aS'@martinwatt382'
p1391
aS'@AJCalloway'
p1392
aS'@EOetzel:'
p1393
aS'@hkshel'
p1394
aS'@EliotSpitzer'
p1395
aS'@NextLevelStoner'
p1396
aS'@IanHanchett'
p1397
aS'@loudobbsnews,'
p1398
aS'@EllaMaeBe:'
p1399
aS'@JanineTurner,'
p1400
aS'@Drake4444444:'
p1401
aS'@roannasweet'
p1402
aS"@pennjillette's"
p1403
aS'@pasVote'
p1404
aS'@CBSNewYork:'
p1405
aS'@ChristineStergi'
p1406
aS'@CraigPorritt:'
p1407
aS'@luismp77:'
p1408
aS'@TheRayGallimore:'
p1409
aS'@sarah_bales1'
p1410
aS'@rpoole1954:'
p1411
aS'@enzotorin'
p1412
aS'@513pango'
p1413
aS'@OrangeTrump'
p1414
aS'@InStyle:'
p1415
aS'@Franklin_Graham"'
p1416
aS'@Lord_Sugar--Keep'
p1417
aS'@MarkSimoneNY'
p1418
aS'@Arnoldmuks'
p1419
aS'@Trump_Charlotte'
p1420
aS"@TrumpTO's"
p1421
aS'@ConnorBaldwin21:'
p1422
aS'@JoffCallaghan:'
p1423
aS'@IamTimClancy:'
p1424
aS'@PJonCHYM:'
p1425
aS'@sharethis'
p1426
aS'@THEsal_sortino:'
p1427
aS'@M_Brannstrom'
p1428
aS'@jannunz7:'
p1429
aS'@peterjbates'
p1430
aS"@Macy's-they"
p1431
aS'@GolfChannel"'
p1432
aS'@PrimeMinisterSX'
p1433
aS'@GolfChannel.'
p1434
aS'@AwaisM:'
p1435
aS'@GolfChannel:'
p1436
aS'@dannyzuker'
p1437
aS'@liljon'
p1438
aS'@Cookies4kids'
p1439
aS'@davidaxelrod--he'
p1440
aS'@susanadana432:'
p1441
aS'@_TrevorJames:'
p1442
aS'@tonyarolandtr'
p1443
aS'@JohnnyObots:'
p1444
aS'@LadySandersfarm'
p1445
aS'@moeaa12:'
p1446
aS'@IanCKeffer:'
p1447
aS'@Boston_Police,'
p1448
aS'@MrNiceeWatch:'
p1449
aS'@MDS820:'
p1450
aS'@bearmntn'
p1451
aS"@NYMag's"
p1452
aS'@GailLorene'
p1453
aS'@garycassard:'
p1454
aS'@SquawkCNBC'
p1455
aS'@johnny4arizona:'
p1456
aS'@gamecockandrew:'
p1457
aS'@WWERaw'
p1458
aS'@cherish_how:'
p1459
aS'@FlyOSUBuckeye1:'
p1460
aS'@ejfriday'
p1461
aS'@MasonChampion:'
p1462
aS'@Southern_Anon63:'
p1463
aS'@EnmotionE:'
p1464
aS'@DavidRoyEarle'
p1465
aS'@DempsterMartin'
p1466
aS'@dollarmana:'
p1467
aS'@SeanHooligan6:'
p1468
aS'@ABC"'
p1469
aS'@MidvilleB:'
p1470
aS'@Bane1349:'
p1471
aS'@kristofer_clark:'
p1472
aS'@LepleyAmanda'
p1473
aS'@Nationals'
p1474
aS'@McIlroyRory.'
p1475
aS'@ApprenticeNBC:'
p1476
aS'@FrankMDavisJR'
p1477
aS'@JoeWeissnmb'
p1478
aS'@tedcruz?'
p1479
aS'@ApprenticeNBC-'
p1480
aS'@ApprenticeNBC,'
p1481
aS'@BenAffleck'
p1482
aS'@StephenGreen91:Trump'
p1483
aS'@ApprenticeNBC!'
p1484
aS'@TonyTurko:'
p1485
aS'@MichaelRubinton'
p1486
aS'@YouTube'
p1487
aS'@pressjournal'
p1488
aS'@KarltheMarx:'
p1489
aS'@RoryMcIlroy'
p1490
aS'@fox_trot_1'
p1491
aS'@Nicole52008'
p1492
aS'@cyberpunksamuri:'
p1493
aS'@cookingdoll:'
p1494
aS'@sarahstonegolf:'
p1495
aS'@AmDiabetesAssn'
p1496
aS'@PHATWHODAT:'
p1497
aS'@ProudlySA:'
p1498
aS'@ElonMusk'
p1499
aS'@G0D_'
p1500
aS'@tbott22'
p1501
aS'@nyc_bos:'
p1502
aS'@shinysheet:'
p1503
aS'@BobOBomo:'
p1504
aS'@kaylorcc'
p1505
aS'@TheRevAl'
p1506
aS'@backupwraith:'
p1507
aS'@SPORTSGURU77:'
p1508
aS'@oreillyfactor(with'
p1509
aS'@NYPost'
p1510
aS'@CWilliams_Rltr'
p1511
aS'@realMikePalumbo'
p1512
aS'@Felix_Clay'
p1513
aS'@Janie_Sears:'
p1514
aS'@Telemundo'
p1515
aS'@debkhk'
p1516
aS'@JoshCalebKing:'
p1517
aS'@morningmika'
p1518
aS'@skropf47:'
p1519
aS'@RollingStone'
p1520
aS'@emileegorham:'
p1521
aS'@hunterhayes,'
p1522
aS'@Ructions77'
p1523
aS'@vin7768.'
p1524
aS'@thetodayshow'
p1525
aS'@LuxTravel...'
p1526
aS'@Ter2885:'
p1527
aS'@RichRichie725'
p1528
aS'@jimbhoyx'
p1529
aS'@marileenelson'
p1530
aS'@LisaLampanelli'
p1531
aS'@BrielleZolciak'
p1532
aS'@wizHether:'
p1533
aS'@ChadSheridan:'
p1534
aS'@CameronM_:'
p1535
aS'@Luigiboria:'
p1536
aS'@marco_reid:'
p1537
aS'@MulletGang2020:'
p1538
aS'@claudiajordan'
p1539
aS'@IvankaTrump'
p1540
aS'@soonrfan4life:'
p1541
aS'@jeffreypham'
p1542
aS'@ChrisBiedermann:'
p1543
aS'@sarah_e_smith9:'
p1544
aS'@2ndNatureShh:'
p1545
aS'@WealthyJACK'
p1546
aS'@CharlesHurt:'
p1547
aS'@wsiworld'
p1548
aS'@Tom38Ts:'
p1549
aS'@sanksharma:'
p1550
aS'@bojo123be:'
p1551
aS'@BillDaley1'
p1552
aS'@sofierose22:'
p1553
aS'@MeghanFaheyy'
p1554
aS'@TheGolfAdvisor'
p1555
aS'@thrashingkitty:'
p1556
aS'@ASA_Patriot:'
p1557
aS'@digiphile'
p1558
aS'@LanaH11'
p1559
aS'@newszbreaking:'
p1560
aS'@ChrisSuprun'
p1561
aS'@AmericanExpress'
p1562
aS'@Vinny_Titone'
p1563
aS'@Ehab_Eassa:'
p1564
aS'@ShaPaliath:'
p1565
aS'@dunlop_daniel:'
p1566
aS'@pimpincrxboy'
p1567
aS'@GeorgeTakei'
p1568
aS'@chris_l54'
p1569
aS'@SchroedBoss'
p1570
aS'@weeklystandard.'
p1571
aS'@ev...'
p1572
aS'@rcmillershow'
p1573
aS'@JRooneyIII'
p1574
aS'@TimmyVafides:'
p1575
aS'@cadams2513:'
p1576
aS'@sugarhoney157:'
p1577
aS'@cynstweet:'
p1578
aS'@adamricheal'
p1579
aS'@MattySmales1'
p1580
aS'@SkyGlideUSA'
p1581
aS'@anthonyskwiat'
p1582
aS'@JAW44444:'
p1583
aS'@MoscowTimes:'
p1584
aS'@PRINCEOMEGA'
p1585
aS'@JoeyCarna:'
p1586
aS'@robertfritz308'
p1587
aS'@lord'
p1588
aS'@Andrewtellsyou:'
p1589
aS'@MrMikeCalta'
p1590
aS'@Ceastwood12:'
p1591
aS'@ApprenticeNBC!"'
p1592
aS'@celtoid2:'
p1593
aS'@orThatGuy:'
p1594
aS'@MittRomney?'
p1595
aS'@SportsCenter:'
p1596
aS"@TrumpNationalNY's"
p1597
aS'@scottmaxfight:'
p1598
aS'@jrnicholas8'
p1599
aS'@JimDaniell30809'
p1600
aS'@MittRomney,'
p1601
aS'@MittRomney-'
p1602
aS'@MittRomney.'
p1603
aS'@MarkHalperin'
p1604
aS'@msft9:'
p1605
aS'@bwiss24:'
p1606
aS'@MittRomney"'
p1607
aS'@not_that_actor'
p1608
aS'@8pm'
p1609
aS'@MCGreenlaw:'
p1610
aS'@MaaattyB:'
p1611
aS'@JonahNRO?'
p1612
aS'@IToldYouMonsoon:'
p1613
aS'@JonahNRO"'
p1614
aS'@Autism'
p1615
aS'@JonahNRO.'
p1616
aS'@real_one23:'
p1617
aS'@RoyalOakPatch:'
p1618
aS'@Lisaowens1989'
p1619
aS'@kevinmurraygolf:'
p1620
aS'@CaroleCJF'
p1621
aS'@GameANew'
p1622
aS'@deluxeboss:'
p1623
aS'@HillaryClinton.'
p1624
aS'@patrickparuolo'
p1625
aS'@Oreillyfactor'
p1626
aS'@nbc'
p1627
aS'@fink13'
p1628
aS'@Kelliejo2013:'
p1629
aS'@BillRancic!'
p1630
aS'@kenzig'
p1631
aS'@I_Dont_Know_Her:'
p1632
aS'@AhmedMallick2'
p1633
aS'@The_Masters.'
p1634
aS'@OHOUD555:'
p1635
aS'@Steal70'
p1636
aS'@Hoxma:'
p1637
aS'@JohnCena'
p1638
aS'@hyannis1952:'
p1639
aS'@Justin_Majoy:'
p1640
aS'@CTrain_'
p1641
aS'@joaquin360'
p1642
aS'@MissUniverseCanada'
p1643
aS'@BetBrod'
p1644
aS'@truckncargirl'
p1645
aS'@DailyTelegraph'
p1646
aS'@Greek_Boy_21:'
p1647
aS'@SuzMcGeeNYC:'
p1648
aS'@nicksibrodi:'
p1649
aS'@IranGovt'
p1650
aS'@AndyPettitte'
p1651
aS'@kerrkerr73'
p1652
aS'@mfbirk:'
p1653
aS'@missally52'
p1654
aS'@Followlolo"'
p1655
aS'@CharlesGerace:'
p1656
aS'@shea_leduc:'
p1657
aS'@nycal821'
p1658
aS'@J1En'
p1659
aS'@NYMag.'
p1660
aS'@FoxBusiness'
p1661
aS'@MaxBaucus'
p1662
aS'@AJ_13_Hulton'
p1663
aS'@bprunty67:'
p1664
aS'@shibis:'
p1665
aS'@MikeAndMike'
p1666
aS'@realDonaldTrump?'
p1667
aS'@LilCheezWiz'
p1668
aS'@harry_vickers'
p1669
aS'@KathieLGifford'
p1670
aS'@Mbathani_Inc'
p1671
aS'@realDonaldTrump!'
p1672
aS'@TotalSportsNews'
p1673
aS'@Jess_Blanch94:'
p1674
aS'@88PKane'
p1675
aS'@SaintPetersblog'
p1676
aS'@poolsharkNC:'
p1677
aS'@ma22dogs:'
p1678
aS'@Heaveenly:'
p1679
aS'@georgewillf'
p1680
aS'@KSofen:'
p1681
aS'@jlawfriedman:'
p1682
aS'@AndreaTantaros'
p1683
aS'@LRod421:'
p1684
aS'@danscire'
p1685
aS'@ShannonBream,'
p1686
aS'@ASwoyer'
p1687
aS'@businessline:'
p1688
aS'@DNC.'
p1689
aS'@MistRusso:'
p1690
aS'@Lauren_Faith01'
p1691
aS'@teresa_giudice'
p1692
aS'@realDonaldTrump..'
p1693
aS'@BKleinGolfweek'
p1694
aS'@ellevarner'
p1695
aS'@DennisRodman:'
p1696
aS'@dennis_goins:'
p1697
aS'@Gurning_Chimp'
p1698
aS'@caroleapple'
p1699
aS'@jimatcastle:'
p1700
aS'@joeho'
p1701
aS'@goingoutguide'
p1702
aS'@BrianRyback'
p1703
aS'@SimpsonCollege'
p1704
aS'@fc61e7ca3dac404:'
p1705
aS'@craigdevlin'
p1706
aS'@AlexEveslage:'
p1707
aS'@Reedgs119:'
p1708
aS'@maynor1972'
p1709
aS'@ACLJ:'
p1710
aS'@Pourquoipas20'
p1711
aS'@TiaCarrere'
p1712
aS'@VattenfallGroup.'
p1713
aS"@msnbc's"
p1714
aS'@bsarikas'
p1715
aS'@HuffPostUKPol'
p1716
aS'@FredTecce'
p1717
aS'@Heloglider:'
p1718
aS'@arid93'
p1719
aS'@PCornibe:'
p1720
aS'@FurnitureToday'
p1721
aS'@Mattia_Crovini:'
p1722
aS'@FoxNewsSunday'
p1723
aS'@TheBigAStabile'
p1724
aS'@AFreespeechzone'
p1725
aS'@mizatch'
p1726
aS'@jvickersdc'
p1727
aS'@steveman905'
p1728
aS"@AnnDRomney's"
p1729
aS'@nbc!"'
p1730
aS'@Recommendmag:'
p1731
aS'@_AJPerez'
p1732
aS'@fitsnews'
p1733
aS'@champforrest:'
p1734
aS'@NolteNC'
p1735
aS'@DerekJeter'
p1736
aS'@Mayhemsolis'
p1737
aS'@crainey777'
p1738
aS'@somegirl71'
p1739
aS'@davidkaifaith:'
p1740
aS'@realNYCblonde:'
p1741
aS'@k_monchk:'
p1742
aS'@kostoff2'
p1743
aS'@richardbranson'
p1744
aS'@Ashonair101'
p1745
aS'@wordofmouth_tv:'
p1746
aS'@tavbta:'
p1747
aS'@dakotanina:'
p1748
aS'@jonkarl-I'
p1749
aS'@BrettMDecker:'
p1750
aS'@4TheTruth2012:'
p1751
aS'@dalstar009'
p1752
aS'@jeffredman5'
p1753
aS'@thenyrangers'
p1754
aS'@Wastehe'
p1755
aS'@matthewhkurth:'
p1756
aS'@LeviThompson93'
p1757
aS'@LibertyU'
p1758
aS'@CaseHoag:'
p1759
aS'@realDonaldTrump,my'
p1760
aS'@deniseprobe:'
p1761
aS'@RSherman_25'
p1762
aS'@WMUR9'
p1763
aS'@rodsandguitars'
p1764
aS'@Jassisidhu'
p1765
aS'@parademagazine'
p1766
aS'@GrimeyGatsby'
p1767
aS'@therealTMac11:'
p1768
aS'@IrishGolfDesk:'
p1769
aS'@nytimes:'
p1770
aS'@LindaSuhler:'
p1771
aS"@DennisRodman's"
p1772
aS'@Roney_Samuel:'
p1773
aS'@ClemensIsland13'
p1774
aS'@Arseburgers:'
p1775
aS'@Mjaybat2002:'
p1776
aS'@bonappiteite'
p1777
aS'@carolbell04:'
p1778
aS'@PbrunnerRr:'
p1779
aS'@mboyle1:Donald'
p1780
aS'@terryvanburen'
p1781
aS'@KristyWillams79:'
p1782
aS'@viksquad:'
p1783
aS'@PrestonAKeller:'
p1784
aS'@Cherelynn:'
p1785
aS'@JoshCalebKing'
p1786
aS'@Mishaforever:'
p1787
aS'@RenelianNation:'
p1788
aS'@PrivateCaddie:'
p1789
aS'@cleopattraUSA:'
p1790
aS'@DannyZ...'
p1791
aS'@DurantRandy:'
p1792
aS'@austinwalsh:'
p1793
aS'@Oprah'
p1794
aS'@DonaldJTrumpJr'
p1795
aS'@VeryOddDog'
p1796
aS'@jefferies_:'
p1797
aS'@britanniagolf'
p1798
aS'@Zap2It!'
p1799
aS'@wainainanjenga:'
p1800
aS'@ReutersPolitics'
p1801
aS'@Kramersfarm:'
p1802
aS'@RSan:'
p1803
aS'@FlyOSUBuckeye1:Really'
p1804
aS'@DCGiesII:'
p1805
aS'@WantDDUBLovin:'
p1806
aS'@sjleith'
p1807
aS'@Newsmax__Media'
p1808
aS'@wolfman708'
p1809
aS'@DAM615'
p1810
aS'@KristenCWard:'
p1811
aS'@netanyahu'
p1812
aS'@linda_lcarson:'
p1813
aS'@beckyejiogu'
p1814
aS'@killacam_9:'
p1815
aS'@steveturk182:'
p1816
aS'@Malibu101834:'
p1817
aS'@attakhan77:'
p1818
aS'@youtube'
p1819
aS'@UrbanTurf_DC:'
p1820
aS'@hrt05hsv:'
p1821
aS'@Lord_Sugar'
p1822
aS'@SirBraden:'
p1823
aS'@MileyCyrus,'
p1824
aS'@MileyCyrus-'
p1825
aS'@BreitbartNews,'
p1826
aS'@howardstern.'
p1827
aS'@WSJVideo'
p1828
aS'@CentralParkNYC!'
p1829
aS'@omat999:'
p1830
aS'@IvankaTrump?"'
p1831
aS'@CentralParkNYC:'
p1832
aS'@independent_ie'
p1833
aS'@raider_level:'
p1834
aS'@AndreasBoos'
p1835
aS'@_JohnHahn:'
p1836
aS'@JohnStoli:'
p1837
aS'@mayrazayago:'
p1838
aS'@TheBrazilTrader:'
p1839
aS'@GovernorVA:'
p1840
aS'@melaniebatley:'
p1841
aS'@DCGovTwit'
p1842
aS'@DavidSBaldwin:'
p1843
aS'@TimTebow'
p1844
aS'@DavidHyre:'
p1845
aS'@realDonaldTrump....please'
p1846
aS'@JLsmoothh:'
p1847
aS'@kimberlykc1st:'
p1848
aS'@GeoffEarle:'
p1849
aS'@Chuffman48'
p1850
aS'@pbanura'
p1851
aS'@BLVD_DAWG:'
p1852
aS'@caryjp'
p1853
aS'@astros'
p1854
aS'@ldconger'
p1855
aS'@reidepstein'
p1856
aS'@higginsane'
p1857
aS'@Milliesappeal'
p1858
aS'@FLGovScott'
p1859
aS'@HarryCraig96'
p1860
aS'@velvet_roper'
p1861
aS'@mallhayden11'
p1862
aS'@pewresearch'
p1863
aS'@thecoolestemma:'
p1864
aS'@GorgesSteven:'
p1865
aS'@BreitbartNews:'
p1866
aS'@suew777'
p1867
aS'@Numerologynow:'
p1868
aS'@djred678'
p1869
aS'@TMPLUSII:'
p1870
aS'@UberFacts'
p1871
aS'@cnjohansens'
p1872
aS'@CoreyKotowski:'
p1873
aS"@marklevinshow's"
p1874
aS'@jerrimoore:'
p1875
aS'@FollowIreland:'
p1876
aS'@brianneDMR:Trump:'
p1877
aS'@grantgphoto'
p1878
aS'@Mark_Sanchez'
p1879
aS'@iklemieux'
p1880
aS'@AdamCarolla'
p1881
aS'@GenaLeeNolin'
p1882
aS'@davidvnyc'
p1883
aS'@jp_worldwide:'
p1884
aS'@akers_joshua:'
p1885
aS'@PrestonsDayOff:'
p1886
aS'@kumite67'
p1887
aS'@roedigerj'
p1888
aS'@RickieFowlerPGA'
p1889
aS'@kbaileyjava2:'
p1890
aS'@MikeandDawnNY:'
p1891
aS'@THE_OBM:'
p1892
aS'@Vinny_Titone:'
p1893
aS'@YossiGestetner:'
p1894
aS'@chitecture'
p1895
aS'@KBetter52'
p1896
aS'@JEngleLV:'
p1897
aS'@TheRightScoop'
p1898
aS'@JonahNRO'
p1899
aS'@anitaozz2:'
p1900
aS'@robyncook7:'
p1901
aS'@JimBou1234:'
p1902
aS'@DialaD7:'
p1903
aS'@GolfweekMag:'
p1904
aS'@7pm'
p1905
aS'@nicla_b:'
p1906
aS'@ajdukakis'
p1907
aS'@akendall13'
p1908
aS'@WSJ:'
p1909
aS'@WSJ-'
p1910
aS'@WSJ.'
p1911
aS'@PICA_59:'
p1912
aS'@ezt91'
p1913
aS'@WSJ"'
p1914
aS'@waycooljr37'
p1915
aS'@jimmymcgreevy'
p1916
aS'@Turnberry!'
p1917
aS'@Kevin_Johnson68'
p1918
aS'@dhowejr7:'
p1919
aS'@TheGarden.'
p1920
aS'@nashvillebobby'
p1921
aS'@HaughNasty:'
p1922
aS'@Mike_Canan:'
p1923
aS'@royroper:'
p1924
aS'@DETAILS'
p1925
aS'@piersmorgan"'
p1926
aS'@Sam_Rellim'
p1927
aS'@piersmorgan,'
p1928
aS'@piersmorgan.'
p1929
aS'@SharonSmurfit:'
p1930
aS'@tvmario'
p1931
aS'@magicdel'
p1932
aS'@JoseCanseco'
p1933
aS'@piersmorgan:'
p1934
aS'@OreillyFactor'
p1935
aS'@ccade937'
p1936
aS'@jpadraigb:'
p1937
aS'@MerlouMick'
p1938
aS'@KennedyGaels:'
p1939
aS'@RepMattSalmon'
p1940
aS'@Ipatriotmedia:'
p1941
aS'@crocuscityhall'
p1942
aS'@America_Toronto'
p1943
aS'@darhowklo:'
p1944
aS'@Leonard'
p1945
aS'@PoliticalTicker:'
p1946
aS'@RachelYohee'
p1947
aS'@VeuveClicquot'
p1948
aS'@GOP.'
p1949
aS'@GOP,'
p1950
aS'@PoliticalTicker,'
p1951
aS'@woodyjohnson4'
p1952
aS'@GOP"'
p1953
aS'@jeffbuehrle'
p1954
aS'@HalangManok:'
p1955
aS'@Appren...'
p1956
aS'@algore'
p1957
aS'@Benhrysack:'
p1958
aS'@RICHNYJETS:'
p1959
aS'@caleb2207:'
p1960
aS'@alecmillionaire'
p1961
aS'@DOSMTurnberry'
p1962
aS'@rab4488:'
p1963
aS'@millonseconds'
p1964
aS'@jeffreybigmoney:'
p1965
aS'@ReenaJF:'
p1966
aS'@TrumpSoho&amp;'
p1967
aS'@Aberdeenshire.'
p1968
aS'@CariRead08:'
p1969
aS'@RyleyRLynn:'
p1970
aS'@JedediahBila'
p1971
aS'@nick_torch'
p1972
aS'@South_Said'
p1973
aS'@BritLizHilton:'
p1974
aS'@TracyHolland1:'
p1975
aS'@asaadhutchinson:'
p1976
aS'@MikeE116'
p1977
aS'@Ozziemae:'
p1978
aS'@RGIII'
p1979
aS'@specialk211:'
p1980
aS'@RED931FM'
p1981
aS'@BillKicklighter'
p1982
aS'@VeryOddDog:'
p1983
aS'@jackie4545890:'
p1984
aS'@HAJMAJA'
p1985
aS'@EricTrumpFdn'
p1986
aS'@kcautv:'
p1987
aS'@Al_Co:'
p1988
aS'@Operator1975:'
p1989
aS'@makeawish!'
p1990
aS'@paynetb:'
p1991
aS'@AmericansElect'
p1992
aS'@JJ55334767'
p1993
aS'@kasie:'
p1994
aS'@BillyParker03:'
p1995
aS'@sandrapatriot:'
p1996
aS'@ftimewifenmomma:'
p1997
aS"@ScottKWalker's"
p1998
aS'@TrayvonMartin.'
p1999
aS'@peterjbates:'
p2000
aS'@ABCnews/@WashingtonPost'
p2001
aS'@PJStrikeForce:'
p2002
aS'@J4K9FLATLEY:'
p2003
aS'@RNC'
p2004
aS'@JeniferStevens:'
p2005
aS'@CapehartJ'
p2006
aS'@BSS8888:'
p2007
aS'@suzannesaxx'
p2008
aS'@GOOD_ggg'
p2009
aS'@AscotCarRental'
p2010
aS'@mbabramson:'
p2011
aS'@FFCoalition'
p2012
aS'@ArronJ1'
p2013
aS'@geauxholmes:'
p2014
aS'@LasVegasSun'
p2015
aS'@Pg1493:'
p2016
aS'@cstace1:'
p2017
aS'@stevegbowlin:'
p2018
aS'@bellaxbionda'
p2019
aS'@Americanwoman00:'
p2020
aS'@jwt19723:'
p2021
aS'@agpt73:'
p2022
aS'@CathyFuregno:'
p2023
aS'@ktumulty'
p2024
aS'@ipod_jay:'
p2025
aS'@SDM_TTG:'
p2026
aS'@Colvio117'
p2027
aS'@tedcruz'
p2028
aS'@TurnberryBuzz'
p2029
aS'@Mrs_Batie:'
p2030
aS'@maffucci93'
p2031
aS'@riggs_deb'
p2032
aS'@lauralynn1955:'
p2033
aS'@billmaher'
p2034
aS'@ONTHEVIRG66:'
p2035
aS'@DSlagle132:'
p2036
aS'@NYPost--Congrats'
p2037
aS'@GeraldoRivera:'
p2038
aS'@JAW44444'
p2039
aS'@barrettag:'
p2040
aS'@xarmanno:'
p2041
aS'@EdwardFrancisII:'
p2042
aS'@sweetspottrader:'
p2043
aS'@Bobbysoo80'
p2044
aS'@SullyThinks:'
p2045
aS'@Desheay:'
p2046
aS'@LikeWhoa134:'
p2047
aS'@sonnset:'
p2048
aS'@sonnset2'
p2049
aS'@debragarrett:'
p2050
aS'@hardball_chris'
p2051
aS'@JeanGeorges'
p2052
aS'@TandCmag:'
p2053
aS'@SarahBeth1020:'
p2054
aS'@trumpchicago'
p2055
aS'@JayDAustin:'
p2056
aS'@GauravK725:'
p2057
aS'@IamSloany'
p2058
aS'@AbishurPrakash'
p2059
aS"@jameshohmann's"
p2060
aS'@NHLDevils'
p2061
aS'@MYKALFURY:'
p2062
aS'@jcpost'
p2063
aS'@dxkelley'
p2064
aS'@realMikeShapiro'
p2065
aS'@Mannamalistic:'
p2066
aS'@viclillo:'
p2067
aS'@DaSchott'
p2068
aS'@Munkykracker:'
p2069
aS'@jeangeorges'
p2070
aS'@angela_pink_fan'
p2071
aS'@TheApprentice'
p2072
aS'@UsuallyBogey:'
p2073
aS'@Lauren_Nann:'
p2074
aS'@Rosie--how'
p2075
aS'@ezika101:'
p2076
aS'@WestJournalism'
p2077
aS'@RossWeidner'
p2078
aS'@HowardStern'
p2079
aS'@wallsburg'
p2080
aS'@nealobleser:'
p2081
aS'@coll4734:'
p2082
aS'@josh_hlbrk'
p2083
aS'@BABOONVIEW:'
p2084
aS'@RobertNovak5:'
p2085
aS'@rginn_1'
p2086
aS'@fluffyguy'
p2087
aS'@OnlyAnnieHorton:'
p2088
aS'@CmteForIsrael:'
p2089
aS'@SJonesCNS:'
p2090
aS'@RichDeLeo.'
p2091
aS'@mackette52:'
p2092
aS'@Misterglorious'
p2093
aS'@kmac5911'
p2094
aS'@MemoInc'
p2095
aS'@DianeLMarshall_:'
p2096
aS'@LilJon!'
p2097
aS'@Late_Show.'
p2098
aS'@kfonkwa'
p2099
aS'@CassandraJ0y'
p2100
aS'@DundonaldLinks.'
p2101
aS"@elite_traveler's"
p2102
aS'@pwgavin'
p2103
aS'@DEMEGL10:'
p2104
aS'@hogan211:'
p2105
aS'@theRealKiyosaki"'
p2106
aS'@BlairKamin'
p2107
aS'@NBC'
p2108
aS'@rtaffofficial:'
p2109
aS'@DanielPokorski:'
p2110
aS'@str8thinker:'
p2111
aS'@sloat24:'
p2112
aS'@TrumpToronto.'
p2113
aS'@melpoluk'
p2114
aS'@TrumpToronto,'
p2115
aS'@TrumpToronto!'
p2116
aS'@WilsonLeeFlores'
p2117
aS'@nycgo:'
p2118
aS'@DLDizel'
p2119
aS'@lisakaminsky'
p2120
aS'@TrumpGolfNY:'
p2121
aS'@TripleH.'
p2122
aS'@pzarrella21:'
p2123
aS'@GregE_IoM.'
p2124
aS'@MarcoGio13'
p2125
aS'@Zac_dunnn2'
p2126
aS'@DannyBo4455:'
p2127
aS'@Patriotress:'
p2128
aS'@NCBillsFan'
p2129
aS"@VattenfallGroup's"
p2130
aS'@HPMARKETNEWS'
p2131
aS'@ScottJW'
p2132
aS'@jamesgo31991021:'
p2133
aS'@Culzeancastle'
p2134
aS'@lucysmommichele:'
p2135
aS'@reallDonaldTrump'
p2136
aS'@Jake_Clegg81:'
p2137
aS'@Thatchers_Child:'
p2138
aS'@NJPGA:'
p2139
aS'@MattMoran50'
p2140
aS'@CMSikorski:'
p2141
aS'@Joe3957'
p2142
aS'@jimcramer'
p2143
aS"@lisalampanelli's"
p2144
aS'@HolzMDK:'
p2145
aS'@BCLe...'
p2146
aS'@bat211:'
p2147
aS'@T_Colello:'
p2148
aS'@KraftyWurker:'
p2149
aS'@MarkMoreland:'
p2150
aS'@KathyTh38140700:'
p2151
aS'@kanikagahlaut:'
p2152
aS'@Jean_GeorgesNYC:'
p2153
aS'@theqtan:'
p2154
aS'@shook_stephanie'
p2155
aS'@PatsIntensity'
p2156
aS'@GingerPascoe'
p2157
aS'@stevenharlow85'
p2158
aS'@JasonDufner:'
p2159
aS'@TeamFallowwBack:'
p2160
aS'@keegster51:'
p2161
aS'@JosephSchleider:'
p2162
aS'@K_Swisher69'
p2163
aS'@FakeSkiTeam:'
p2164
aS'@StevePike9:'
p2165
aS'@KathyLooper'
p2166
aS'@MansfieldRA:'
p2167
aS'@CarsonMotz:'
p2168
aS'@Dave_Brown_:'
p2169
aS'@usopengolf'
p2170
aS'@wordpressdotcom'
p2171
aS'@PaulinaVegaDiep'
p2172
aS'@youngjames03:'
p2173
aS'@pam_rugan'
p2174
aS'@njm4250'
p2175
aS'@CelebApprentice,'
p2176
aS'@CelebApprentice.'
p2177
aS'@Helmzyy'
p2178
aS'@ptrombly:'
p2179
aS'@RGhilinoCLU:'
p2180
aS'@ChanRogers'
p2181
aS'@KTLA:'
p2182
aS'@AlexSalmond'
p2183
aS'@PhilRamlet:'
p2184
aS'@VandaMan86:'
p2185
aS'@washingtonpost:Donald'
p2186
aS'@WendyJFluga28:'
p2187
aS'@SummersMarcus:'
p2188
aS'@1more77:'
p2189
aS'@Alaskan_Gypsy:'
p2190
aS'@charleslfreemn'
p2191
aS'@AGALLEGOS32'
p2192
aS'@Zagat'
p2193
aS'@__Jibz'
p2194
aS'@WWE"'
p2195
aS'@SharonWilcox13'
p2196
aS'@Follow_DTrick:'
p2197
aS'@ollymennie:'
p2198
aS'@Finenco:'
p2199
aS'@GolfSwingShirt'
p2200
aS'@janestreet'
p2201
aS'@larksnestartist'
p2202
aS'@Bigkick85:'
p2203
aS'@yankees.'
p2204
aS'@Tendraftsdeep:'
p2205
aS'@SaintsFootyNews'
p2206
aS'@JohnMarsicano:'
p2207
aS'@paranormalfact'
p2208
aS'@JoelOsteen'
p2209
aS'@Cturner77'
p2210
aS'@jamieaydt:'
p2211
aS'@Mitestarossa:'
p2212
aS'@Fan_JCena'
p2213
aS'@TalkerNewYorker'
p2214
aS'@PA:'
p2215
aS'@RocRx:'
p2216
aS'@desorourke84:'
p2217
aS'@straffordnhgop'
p2218
aS'@jtruelove713:'
p2219
aS'@Tommyguns11:'
p2220
aS'@bostonherald'
p2221
aS'@4StrongerAmer:'
p2222
aS'@jason_donoghue'
p2223
aS'@sr_stocks:'
p2224
aS'@mrv911:'
p2225
aS'@RepostApp'
p2226
aS'@Piratelover22:'
p2227
aS'@STVAberdeen:'
p2228
aS'@Armani_G_'
p2229
aS'@LonghornHomer'
p2230
aS'@todayshow.'
p2231
aS'@ForexBoxusd'
p2232
aS'@meetthepress,'
p2233
aS'@todayshow:'
p2234
aS'@todayshow?'
p2235
aS'@BashirLive'
p2236
aS'@cstevechristyjr:'
p2237
aS'@CharleyDummer:'
p2238
aS'@GregGutfeldShow'
p2239
aS'@PierreHennequin:'
p2240
aS'@coachofspin'
p2241
aS'@JoshGundle:'
p2242
aS'@Sofia_Mozek:'
p2243
aS'@SybilaLopez:'
p2244
aS'@39caroline:'
p2245
aS'@eonline'
p2246
aS'@globeandmail'
p2247
aS'@TxSi'
p2248
aS'@nfl'
p2249
aS'@DHalley:'
p2250
aS'@Wolfrum:'
p2251
aS'@jerome_corsi'
p2252
aS'@NiccoBigalli'
p2253
aS'@NHLBlackhawks'
p2254
aS'@autumnallday:'
p2255
aS'@johnborntoride:'
p2256
aS'@futureicon:'
p2257
aS'@pcm426:'
p2258
aS'@pjkorman'
p2259
aS'@Cadillac:'
p2260
aS'@ChefDavidBurke'
p2261
aS'@LisWiehl'
p2262
aS'@Youngdf50:'
p2263
aS'@Mikeyy84:'
p2264
aS'@_stacys_mom_:'
p2265
aS'@Facebook_Ben'
p2266
aS'@arsenioOFFICIAL'
p2267
aS'@lafrana'
p2268
aS'@ARGOP'
p2269
aS'@Jarjarbug:'
p2270
aS'@j_middleton7:'
p2271
aS'@_fly_on_wall_:'
p2272
aS'@Chm14Mc:'
p2273
aS'@Zoann1:'
p2274
aS'@RebeccaErin_'
p2275
aS'@MegaHeid:'
p2276
aS'@gharo34:'
p2277
aS'@AerielleS:'
p2278
aS'@ollact:'
p2279
aS'@jonathanagin:'
p2280
aS"@SixteenChicago's"
p2281
aS'@worldREDEYE:'
p2282
aS'@ChrisFornari:'
p2283
aS'@PhillipMoodie'
p2284
aS'@jamalwms45'
p2285
aS'@Auburnfan2155:'
p2286
aS'@afrodeziak'
p2287
aS'@AberdeenshireCC'
p2288
aS'@BravoFan2014:'
p2289
aS'@MLauer'
p2290
aS'@Jdwillms1Jeff:'
p2291
aS'@lesterwge'
p2292
aS'@jdmcc:'
p2293
aS'@granitttg:'
p2294
aS'@TinkerP91:'
p2295
aS'@realDonaldTrump:@RoySchuhmacher:'
p2296
aS'@MusicByEthan'
p2297
aS'@jacadere:'
p2298
aS'@GCMorningDrive'
p2299
aS'@ohheyyhbayyy:'
p2300
aS'@mwood_79:'
p2301
aS'@PartTimer32:'
p2302
aS'@blindtothetruth'
p2303
aS'@crushthespirit'
p2304
aS'@PennJillette!'
p2305
aS'@us_patriot_3888:'
p2306
aS'@anurag7287:'
p2307
aS'@MrInsaf:'
p2308
aS'@StartleMeNow'
p2309
aS"@THEGaryBusey's"
p2310
aS'@JNorr11'
p2311
aS'@SolomonDodson:'
p2312
aS'@MissUniverse!'
p2313
aS'@MissUniverse"'
p2314
aS'@Taylor_McBath'
p2315
aS'@MissUniverse.'
p2316
aS'@SharkGregNorman'
p2317
aS'@IanCurbishley'
p2318
aS'@skratch_tv:'
p2319
aS'@HatingBreitbart.'
p2320
aS'@CanizalVania'
p2321
aS'@CrystalLee1971:'
p2322
aS'@AAA_Squibby:'
p2323
aS'@MatthewJPizzo'
p2324
aS'@Obamacare'
p2325
aS'@eliiizabethhhhh:'
p2326
aS'@trump_ireland'
p2327
aS'@thegre8_1:'
p2328
aS'@BrentLudington'
p2329
aS'@VinceMcMahon..it'
p2330
aS'@wakimotho'
p2331
aS'@Doyle5sMom'
p2332
aS'@gazettedotcom'
p2333
aS'@wahb528:'
p2334
aS'@wmdavid66:'
p2335
aS'@chicagotribune'
p2336
aS'@MichaelPhelps'
p2337
aS'@belllabooo13:'
p2338
aS'@BLTPrimeMiami?'
p2339
aS'@TWrtobin'
p2340
aS'@gretawire:'
p2341
aS'@LinksofIreland:'
p2342
aS'@tiffanypearls:'
p2343
aS'@ebhockeyfan'
p2344
aS'@11SHEILA11:'
p2345
aS'@Jamie_Lynch1'
p2346
aS'@DeanoCT:'
p2347
aS'@benlouix:'
p2348
aS'@BigBobLarsen'
p2349
aS'@kicknback123:'
p2350
aS'@Lisa_goforth:'
p2351
aS'@KenyaMoore'
p2352
aS'@jguer042:'
p2353
aS'@arsenioofficial'
p2354
aS'@BonaFideMadMen"'
p2355
aS'@rubendiazjr'
p2356
aS'@_Brandoh:'
p2357
aS'@minlarrycornel:'
p2358
aS'@edbaram13:'
p2359
aS'@frankibe'
p2360
aS'@Buster842:'
p2361
aS'@lfoshie:'
p2362
aS'@Einsteinrevisit:'
p2363
aS'@cjdew67'
p2364
aS'@Nicole_Tri16'
p2365
aS'@bollockslol:'
p2366
aS"@SHAQ's"
p2367
aS'@itsEmilyshine:'
p2368
aS'@HarvickFan_4'
p2369
aS'@GotMade:'
p2370
aS'@barrybutler9:'
p2371
aS'@mrsfrazieraz'
p2372
aS'@joshdefreitas1:'
p2373
aS'@CelebApprentice."'
p2374
aS'@BettyBlopper1:'
p2375
aS'@cooey2ruley:'
p2376
aS'@IBDinvestors'
p2377
aS'@Chris_McNall:'
p2378
aS'@aduanebrown'
p2379
aS'@kevinsmoore:'
p2380
aS'@NNNmrk:'
p2381
aS'@yeswecandeport:'
p2382
aS'@terrymullery'
p2383
aS'@RalphGilles'
p2384
aS'@Jcpcond:'
p2385
aS'@jrocco_96'
p2386
aS'@__Mikey__D:'
p2387
aS'@deedeegop'
p2388
aS'@ASwoyer"'
p2389
aS'@Molly_Kats'
p2390
aS'@BradPaisley'
p2391
aS'@brucetobin:'
p2392
aS'@97Musick:'
p2393
aS'@carsonbonner'
p2394
aS'@koneslager:'
p2395
aS'@BoyerNick15:'
p2396
aS'@nsugra:'
p2397
aS'@Rampage_31:'
p2398
aS'@wee_eats:'
p2399
aS'@Numerologynow.'
p2400
aS'@THEGaryBusey'
p2401
aS'@SovereignChadG'
p2402
aS'@adamsteinbaugh:'
p2403
aS'@NYPD45Pct:'
p2404
aS'@JennyMcCarthy'
p2405
aS'@BlakeSRobinson:'
p2406
aS'@MissUniverse'
p2407
aS'@TODAY'
p2408
aS'@bahia6085:'
p2409
aS'@RoySchuhmacher'
p2410
aS'@SullivanShane9:'
p2411
aS'@Chloe_Eliise'
p2412
aS'@matt_med'
p2413
aS'@SeanHooligan6'
p2414
aS'@Lydia_xoxo'
p2415
aS'@TrumpLasVegas:'
p2416
aS'@BrennenChase'
p2417
aS'@cspanPolitics'
p2418
aS'@BAMA_K1NG:'
p2419
aS'@realDonaldTrump-after'
p2420
aS'@TrumpLasVegas,'
p2421
aS'@TrumpLasVegas!'
p2422
aS'@DustinDeMoss:'
p2423
aS"@TrumpLasVegas'"
p2424
aS'@sheveeta:'
p2425
aS'@chuckiscool:'
p2426
aS'@AndyRichter'
p2427
aS'@BannermanJack:'
p2428
aS'@axlrose.'
p2429
aS'@BrianASidman:'
p2430
aS'@lilydashevsky:'
p2431
aS'@pgaofamerica'
p2432
aS'@Hadas_Gold'
p2433
aS'@druudruu:'
p2434
aS'@RageFelix:'
p2435
aS'@asmarks18:'
p2436
aS'@KingspeedSimms'
p2437
aS'@RGreggKeller'
p2438
aS'@ChroniclePM:'
p2439
aS'@katwatson59'
p2440
aS'@KSV_3:'
p2441
aS'@kzieff:'
p2442
aS'@nonstop85716:'
p2443
aS'@khaleejideal:'
p2444
aS'@Judithdbailey'
p2445
aS'@TheNickSutton:'
p2446
aS'@TheMasters.'
p2447
aS'@CNNSotu'
p2448
aS'@swingtraining'
p2449
aS'@HelsCahill:'
p2450
aS'@chucktodd'
p2451
aS'@moniquesourdif'
p2452
aS'@SenRandPaul'
p2453
aS'@JLPDOG:'
p2454
aS'@Tommyguns11'
p2455
aS'@AliWilbur:'
p2456
aS'@ctrenwith'
p2457
aS'@TPPatriots:'
p2458
aS'@ChayaLa:'
p2459
aS'@Reince'
p2460
aS'@MrLWord:'
p2461
aS'@debbiecraig817:'
p2462
aS'@Moseph81:'
p2463
aS'@robmotmotcally:'
p2464
aS'@jwil444'
p2465
aS'@FoxSportsGolf:'
p2466
aS'@VPBiden'
p2467
aS'@SoCalCharles:'
p2468
aS'@bubbawatson,'
p2469
aS'@CBSmiami'
p2470
aS'@Jon_dennis82'
p2471
aS'@Israel?'
p2472
aS"@AGSchneiderman's"
p2473
aS'@Eerbnagrom:'
p2474
aS'@MatthewDoyle33'
p2475
aS'@BDubLasVegas'
p2476
aS'@Antonhomann'
p2477
aS'@smerconish'
p2478
aS'@HillaryClinton'
p2479
aS'@somecooldad:'
p2480
aS'@ALennemann650'
p2481
aS"@TrumpToronto's"
p2482
aS'@DougHutchins77:'
p2483
aS'@AmericanSkyUK'
p2484
aS'@conservmatt:'
p2485
aS'@NoWindAlabama:'
p2486
aS'@justalmir:'
p2487
aS'@mbb2792'
p2488
aS'@mikefroccaro:'
p2489
aS'@thedailymeal'
p2490
aS'@stewart5337'
p2491
aS'@AladesuruA:'
p2492
aS'@DoctorEdsMom:'
p2493
aS'@oates_tom:'
p2494
aS'@JoshMcElveen'
p2495
aS'@JackPaalay:'
p2496
aS'@patricksb4:'
p2497
aS'@CoachZachCooper'
p2498
aS'@sjohnstonefilm'
p2499
aS'@momtoheather:'
p2500
aS'@golfvoyager'
p2501
aS'@DRUDGE_REPORT'
p2502
aS'@LifeNewsToo:'
p2503
aS'@ChristianPost'
p2504
aS'@..."'
p2505
aS'@TrumpNewYork'
p2506
aS'@jeanpierreaboud:'
p2507
aS'@MauriceConcha'
p2508
aS'@UofNH'
p2509
aS'@Neilleon_'
p2510
aS'@FloridaGOP'
p2511
aS'@hyannis1952'
p2512
aS'@brodie7878:'
p2513
aS'@thelambdizzle:'
p2514
aS'@GavinCoffin:'
p2515
aS'@BillyHallowell:DONALD'
p2516
aS'@NSingh2024'
p2517
aS'@jtthebossman:'
p2518
aS'@Phorts:'
p2519
aS'@ChristianL2499:'
p2520
aS'@RepWeiner'
p2521
aS'@ShawnaTova'
p2522
aS'@Late_Show'
p2523
aS'@IanRambally'
p2524
aS'@RTylerR4'
p2525
aS'@ericfranson'
p2526
aS'@theblaze:'
p2527
aS'@lfoshie'
p2528
aS'@theprovince'
p2529
aS'@gegco:'
p2530
aS'@sharkjbaptiste:'
p2531
aS"@theblaze'"
p2532
aS'@wkxlnhchris'
p2533
aS'@Cityofdoral'
p2534
aS'@MarkSteynOnline'
p2535
aS'@PartyCoveMag'
p2536
aS'@AlleyKat2:'
p2537
aS'@RobertBurnand'
p2538
aS'@brianstelter:'
p2539
aS'@karlrove'
p2540
aS'@jrebell...'
p2541
aS'@frankgaffney:'
p2542
aS'@Presidency2016:'
p2543
aS"@ApprenticeNBC's"
p2544
aS'@MichaelScarbrou:'
p2545
aS'@secupp'
p2546
aS'@RealRobHarrand'
p2547
aS'@tahanna:'
p2548
aS'@ArianaG_Lover26:'
p2549
aS'@JaimeDiaz24'
p2550
aS"@ToddAkin's"
p2551
aS'@joddo15'
p2552
aS'@Espngreeny'
p2553
aS'@AP:'
p2554
aS'@upmagazine'
p2555
aS'@AP.'
p2556
aS'@RobParano'
p2557
aS'@politicoroger'
p2558
aS'@AP"'
p2559
aS'@DarKnightRises'
p2560
aS'@SaakashviliM.'
p2561
aS'@daveajstearns'
p2562
aS'@rsmundo:'
p2563
aS'@MauiJano'
p2564
aS'@jboyette42:'
p2565
aS'@ReddickTr'
p2566
aS'@Diky_mulyana:'
p2567
aS'@KsRedbirds13:'
p2568
aS'@mckprk:'
p2569
aS'@Bobbyukip'
p2570
aS'@NeilWipperman:'
p2571
aS'@BestofNewYork:'
p2572
aS'@davidcanlas88:'
p2573
aS'@mikey_likes_lt'
p2574
aS'@wendellaboats!'
p2575
aS'@Paul_Beiss'
p2576
aS'@STOCKToronto'
p2577
aS'@michaeljackson:'
p2578
aS'@ClutchBa11er'
p2579
aS'@Bostonred:'
p2580
aS'@DamnitJustin'
p2581
aS'@KingRex9'
p2582
aS'@Edincamera2:'
p2583
aS'@georgewillf,'
p2584
aS'@Macys--thanks!'
p2585
aS'@CullenThaDude:'
p2586
aS'@DanShrigley'
p2587
aS'@TrumpLasVegas...'
p2588
aS'@RockinJoe1'
p2589
aS'@LinksNation'
p2590
aS'@Jackshallis'
p2591
aS'@NadjaBrandt:'
p2592
aS'@anthonyweiner'
p2593
aS'@Iamgrizzly1974:'
p2594
aS'@broewads:'
p2595
aS'@JUrciuoli19:'
p2596
aS'@AlwynKlein'
p2597
aS'@SiegristA:'
p2598
aS'@GarryKennedy:'
p2599
aS'@MichaelPlu'
p2600
aS'@TXPatriotsPAC'
p2601
aS'@themurphyz:'
p2602
aS'@si_golf'
p2603
aS'@Nickkleutsch:'
p2604
aS'@MaridythN:'
p2605
aS'@bonniebell'
p2606
aS'@yankeeworshiper'
p2607
aS'@LateNightJimmy'
p2608
aS'@strangerinbree:'
p2609
aS'@rick_huebner:'
p2610
aS'@BlueyesBeauty:'
p2611
aS'@G87Mac:'
p2612
aS'@ForbesInspector'
p2613
aS'@HeraldWeekly'
p2614
aS'@yankeefan3000'
p2615
aS'@deucecrew:'
p2616
aS'@PGATOURNow'
p2617
aS'@jimlibertarian:'
p2618
aS'@DallinMiller:'
p2619
aS'@FaizerMiami:'
p2620
aS'@ronanofficial:'
p2621
aS'@TheDailyShow.'
p2622
aS'@RepTrentFranks'
p2623
aS'@CJM8112'
p2624
aS'@hitwit_subroto:'
p2625
aS'@Lunadeapril:'
p2626
aS'@Drudge_Report_:'
p2627
aS'@DLoesch'
p2628
aS'@angrycrank:'
p2629
aS'@StJude:'
p2630
aS'@wgonet'
p2631
aS'@MiamiHerald:'
p2632
aS'@JoeSimpson_KBBN'
p2633
aS'@AshleyKMayo:'
p2634
aS'@IDollyLenz'
p2635
aS'@DesignerDeb3:'
p2636
aS'@JD_Smoke:'
p2637
aS'@CaudillAsh'
p2638
aS'@ryanbushby'
p2639
aS'@MissyCombs'
p2640
aS"@nbc's"
p2641
aS'@DanRatherReport"'
p2642
aS'@VMilaccio:'
p2643
aS'@DJLoopsFruit'
p2644
aS'@JoyceB11601:'
p2645
aS'@njoh1234:'
p2646
aS'@cjlrx:'
p2647
aS'@stinger_inc:'
p2648
aS'@roedigerj:'
p2649
aS'@cleopattrausa'
p2650
aS'@CJM8112:'
p2651
aS'@CTrain_:'
p2652
aS'@Tybeeman1:'
p2653
aS'@NewEngCollege'
p2654
aS'@daveinfinland:'
p2655
aS'@JohnFromCranber:'
p2656
aS'@ChrisStackStacy'
p2657
aS'@Faithable'
p2658
aS'@SeanBogatin:'
p2659
aS'@donna_1004'
p2660
aS'@todayshow--that'
p2661
aS'@necprof:'
p2662
aS'@mfon_essien:'
p2663
aS'@luvda24man:'
p2664
aS'@jwil444:'
p2665
aS'@NFL'
p2666
aS'@wnapier99:'
p2667
aS'@STEPHENATHOME'
p2668
aS'@wearegolf:'
p2669
aS'@jshah500:'
p2670
aS'@carmeloanthony'
p2671
aS'@postandcourier'
p2672
aS'@leezeldin'
p2673
aS'@trumptoronto'
p2674
aS'@BBCDouglasF:'
p2675
aS'@alexsalmond,'
p2676
aS'@tjwacker.'
p2677
aS'@lasannewton'
p2678
aS'@USAToday'
p2679
aS'@metrolinkFAILS'
p2680
aS'@DavidKobzeff1:'
p2681
aS'@TEApublican'
p2682
aS'@Herbalist_mob:'
p2683
aS'@paulseverngolf:'
p2684
aS'@ElliotD224:'
p2685
aS'@thetimes'
p2686
aS'@infinitys_edge:'
p2687
aS'@neevee31:'
p2688
aS'@Yankees'
p2689
aS'@RobinRoberts'
p2690
aS'@KIMTNews3'
p2691
aS'@ThisIsJoshSmith:'
p2692
aS'@RippethAmy:'
p2693
aS'@Walkabout66'
p2694
aS'@BasilicaCEO:'
p2695
aS'@RobStaback:'
p2696
aS'@NRO:Trump'
p2697
aS'@Cheban42:'
p2698
aS'@arcuate:'
p2699
aS'@dotson_jordan'
p2700
aS'@KellyRipa.'
p2701
aS'@MANNYSTEEZU:'
p2702
aS'@RubenMMoreno:'
p2703
aS'@delonte3ast:'
p2704
aS'@ACUConservative'
p2705
aS'@mrctv'
p2706
aS'@CrystalLight'
p2707
aS'@RuizSeferino:'
p2708
aS'@GolfDigestAU'
p2709
aS'@VattenfallGroup'
p2710
aS'@WeSupportTrump'
p2711
aS'@Bourbon_brain:'
p2712
aS'@michael74085825'
p2713
aS'@ThePrimeHost:'
p2714
aS'@NickDallman:'
p2715
aS'@Wolf_Hausmann:'
p2716
aS'@DPMurphy93'
p2717
aS'@StadiumJourney:'
p2718
aS'@Universifize'
p2719
aS'@SCardamenis:'
p2720
aS'@chrismashimbyi:'
p2721
aS'@Nic_Keller'
p2722
aS'@SCTeamTrump:'
p2723
aS'@CharlieG_DC:'
p2724
aS'@HuffPostPol...."'
p2725
aS'@THEGaryBusey!"'
p2726
aS'@Reddit_Toronto'
p2727
aS'@JoylynBest:'
p2728
aS'@waggles71:'
p2729
aS'@MattGinellaGC:'
p2730
aS'@icer100'
p2731
aS'@CureForJayden'
p2732
aS'@rob_bieber'
p2733
aS'@kneehighspy'
p2734
aS'@TheTomBurkeShow:@AlexSalmond'
p2735
aS'@jrnicholas8:'
p2736
aS'@IanJamesPoulter'
p2737
aS'@big1john:'
p2738
aS'@GeneMcVay:'
p2739
aS'@GauravK725'
p2740
aS'@scottsiebs:'
p2741
aS'@MrsDaRe:'
p2742
aS'@epowell88:'
p2743
aS'@rabidcop109'
p2744
aS'@Joan'
p2745
aS'@WeLoveTheDonald'
p2746
aS'@JasonMattera:'
p2747
aS'@MaryFallacaro'
p2748
aS'@danojano'
p2749
aS'@RealMarkCole'
p2750
aS'@dusty_radio:'
p2751
aS'@JoeTorreCharity'
p2752
aS'@NewsOn6:'
p2753
aS'@DirtyHouseGuy:'
p2754
aS'@BBCNews,'
p2755
aS'@therealtommydel'
p2756
aS'@der_karsten:'
p2757
aS'@DJKelly78'
p2758
aS'@tmoulton'
p2759
aS'@SkeeterSpinello:Trump'
p2760
aS'@SupadupaNycee:'
p2761
aS'@Staton_Flurry:'
p2762
aS'@SenAlexander:'
p2763
aS'@wiccanfoxglove:'
p2764
aS'@Michael_KSC:'
p2765
aS'@am_burns13:'
p2766
aS'@katiecouric'
p2767
aS'@Sappy4142'
p2768
aS'@ProFootballHOF'
p2769
aS'@washingtonpost.'
p2770
aS'@ReutersPolitics:'
p2771
aS'@Bnmaui:'
p2772
aS'@nikkio'
p2773
aS'@cjcochrane1:'
p2774
aS'@anon_thom:'
p2775
aS'@teamcavuto'
p2776
aS'@GappistanRadio'
p2777
aS'@AlWaleedbinT'
p2778
aS'@TripAdvisor.'
p2779
aS'@SissyRichQueenb:'
p2780
aS'@DanScavino'
p2781
aS'@CatsPolitics:'
p2782
aS'@JaayZen:'
p2783
aS'@TeddiLocke:'
p2784
aS'@bluemangroup'
p2785
aS'@wen'
p2786
aS'@MaritzTravel:'
p2787
aS'@ESPN.'
p2788
aS'@mariadomenique9:'
p2789
aS'@duneknight:'
p2790
aS'@Jnakes77:'
p2791
aS'@msnbc'
p2792
aS'@TheFriddle:'
p2793
aS'@escobedoantonio'
p2794
aS'@nicksibrodi'
p2795
aS'@EastonWestwood'
p2796
aS'@_KatherineWebb'
p2797
aS'@MrD1202'
p2798
aS'@AboutTheRock:'
p2799
aS'@LuckyGuyPlay'
p2800
aS'@RealBenCarson,'
p2801
aS'@CNNMoney:'
p2802
aS'@mikebus7:'
p2803
aS'@PaulSRiddell'
p2804
aS'@Pawsar'
p2805
aS'@twittahmachine0:'
p2806
aS'@GinaandersonRN:'
p2807
aS'@JCippy:'
p2808
aS'@NickBeII:'
p2809
aS'@bridgetmarie89:'
p2810
aS'@MFBrooklyn:'
p2811
aS"@JohnLegere's"
p2812
aS'@EdwardFCox'
p2813
aS'@Chr:DonaldTrump'
p2814
aS'@johnhawkinsrwn'
p2815
aS'@ahatwearer:'
p2816
aS"@TrumpSoHo's"
p2817
aS'@TeddySchleifer)'
p2818
aS'@mustbeAT_15:'
p2819
aS'@AGSchneiderman'
p2820
aS'@_EOD'
p2821
aS'@DanielHR27'
p2822
aS'@RichWaugaman'
p2823
aS'@HeisenBarry:'
p2824
aS'@ChaddRyann:'
p2825
aS'@dany8ro:'
p2826
aS'@pkellyshock:'
p2827
aS'@tweetontilt'
p2828
aS'@Ametrano3457:'
p2829
aS'@0xbloood:'
p2830
aS'@autismspeaks,'
p2831
aS'@Neilyoung'
p2832
aS'@bucksfan2012:'
p2833
aS'@KJChmura:'
p2834
aS'@billyharry1'
p2835
aS'@karliejanowski'
p2836
aS'@DeeSnider'
p2837
aS'@squawkboxCNBC,'
p2838
aS'@BravoAndy'
p2839
aS'@carolled2001:'
p2840
aS'@CharlieRymerGC'
p2841
aS'@rox473:'
p2842
aS'@GregsBMC:'
p2843
aS'@Jenn641:'
p2844
aS'@TheKeshKid:'
p2845
aS'@RicardoHernanG:'
p2846
aS'@Roddy_Brown'
p2847
aS'@2go2there:'
p2848
aS'@cadillacchamp.'
p2849
aS'@johncook4189:'
p2850
aS'@Retrogirl01:'
p2851
aS'@Joan_Rivers.'
p2852
aS'@JohnMarkowitz:'
p2853
aS'@Joan_Rivers,'
p2854
aS'@MSNBC'
p2855
aS'@AnnCoulter:'
p2856
aS'@Sennandy:'
p2857
aS'@Yankees"'
p2858
aS'@MathemagicianUK:'
p2859
aS'@McLeanGolf:'
p2860
aS'@REPWEINER'
p2861
aS'@MilitaryRosary'
p2862
aS'@Yankees.'
p2863
aS'@MathemagicianUK.'
p2864
aS'@afievoli:'
p2865
aS'@piano807'
p2866
aS'@DaltonRoss:'
p2867
aS'@TheDalyPlanet:'
p2868
aS'@TWERKMlLEY:'
p2869
aS'@woodyjohnson4,'
p2870
aS'@JessicaCarwile:'
p2871
aS'@TheSlyStallone'
p2872
aS'@Montel_Williams'
p2873
aS'@emilyplacido'
p2874
aS'@cbreeze65:'
p2875
aS'@ChristianJosi'
p2876
aS'@SteveMarz1'
p2877
aS'@TheButteryOne:'
p2878
aS'@FunkyFakir:'
p2879
aS"@donaldjtrumpjr's"
p2880
aS'@MB30'
p2881
aS'@theehayleymarie:'
p2882
aS"@Dratzenberger's"
p2883
aS'@eastevens54'
p2884
aS'@_HankRearden:'
p2885
aS'@tcolmn1:'
p2886
aS'@kbmc24:'
p2887
aS'@mitchellvii'
p2888
aS'@jamesshelby:'
p2889
aS'@RonKaufmanIntrn:'
p2890
aS'@VeneziaMatthew:'
p2891
aS'@rihanna'
p2892
aS'@nicla_b'
p2893
aS'@souperfan2012'
p2894
aS'@souperfan2013'
p2895
aS'@silvermarie2001'
p2896
aS'@MLauer:'
p2897
aS'@realDonaldTrumpVOTE'
p2898
aS'@JHKING17'
p2899
aS'@tegodreaux:'
p2900
aS'@CforColby'
p2901
aS'@PeteGagliardo'
p2902
aS'@DonaldJTrumpJr..'
p2903
aS'@infowars'
p2904
aS'@PetsAliveWest'
p2905
aS'@tufnrs73'
p2906
aS'@jodyhagemann:'
p2907
aS'@Orangeone4:'
p2908
aS'@joooooojaah'
p2909
aS'@aberdeenshire"'
p2910
aS'@adhowe5:'
p2911
aS'@sjp111:'
p2912
aS'@DNorrell'
p2913
aS'@HereisDami:'
p2914
aS'@PatrickBuchanan'
p2915
aS'@pinksugar61'
p2916
aS'@wxyzdetroit'
p2917
aS'@Bayojay:'
p2918
aS'@CaroleCJF:'
p2919
aS'@POTUS'
p2920
aS'@ArberDoci:'
p2921
aS'@sethmeyers21'
p2922
aS'@JUrciuoli19'
p2923
aS'@philly_phily:'
p2924
aS'@ChrisBetts26:'
p2925
aS'@THENORAWILLIAMS:'
p2926
aS'@happygirl71929:'
p2927
aS"@AnnRomney's"
p2928
aS'@RickReilly'
p2929
aS'@InNovember2012:'
p2930
aS'@JarrodRyanZA:'
p2931
aS'@Tedd474'
p2932
aS'@curryslap:'
p2933
aS'@GroverWindham'
p2934
aS'@wcfcourier:'
p2935
aS'@maxstiegemeier'
p2936
aS'@LifestyleMagFL'
p2937
aS'@SaveAmerica15:'
p2938
aS'@gjonesiv'
p2939
aS'@WendyPeters'
p2940
aS'@KamsUnited:'
p2941
aS'@ObamaCare.'
p2942
aS'@JoeTorre'
p2943
aS'@Chadillac107'
p2944
aS'@Friend_Bus:'
p2945
aS'@jrexxxirilious:'
p2946
aS'@Smerwickman:'
p2947
aS'@Verniceblahblah:'
p2948
aS'@dynamicwil'
p2949
aS'@PurkisMark:'
p2950
aS'@foyt4timewinner.'
p2951
aS'@angryjustint:'
p2952
aS'@walterdisneyusa:'
p2953
aS'@Dayanamendoza,'
p2954
aS'@helen39639472:'
p2955
aS'@target2016'
p2956
aS'@DavidFulop:'
p2957
aS'@JuddApatow'
p2958
aS'@llfftt:'
p2959
aS'@BuzzFeedAndrew:'
p2960
aS'@Reagan_Nation:'
p2961
aS'@AveyahDoesWatch'
p2962
aS'@LandmanMarius:'
p2963
aS'@tylerhogan1'
p2964
aS'@byoppjr'
p2965
aS'@AustinOdusanya1'
p2966
aS'@joshskaggs'
p2967
aS'@PatsSoxFan71:'
p2968
aS'@ChuckLane1'
p2969
aS'@CelebApprentice'
p2970
aS'@StephenGrubba:'
p2971
aS'@AndreReCalegari:'
p2972
aS'@TheRealMarilu'
p2973
aS'@53andlex'
p2974
aS'@marie_marshallx'
p2975
aS'@ddietz0907:'
p2976
aS'@murraybrown10'
p2977
aS'@JIMHENDLEY81:'
p2978
aS'@AJ_13_Hulton:'
p2979
aS'@TAZZYdevil13:'
p2980
aS'@astros.'
p2981
aS'@DannyZucker.'
p2982
aS'@SamCadora:'
p2983
aS'@SFGate,'
p2984
aS'@bfc0312:'
p2985
aS'@JaredSKlein:'
p2986
aS'@williamonlyrent'
p2987
aS'@willise2n:'
p2988
aS'@rmor90:'
p2989
aS'@UnionLeader'
p2990
aS'@rodgilbert7:'
p2991
aS'@888maggie888:'
p2992
aS'@PhilipMyrer'
p2993
aS'@AnthonyWeiner'
p2994
aS'@louise_ramage:'
p2995
aS'@toughnewworld:'
p2996
aS'@RaeRae_luv'
p2997
aS'@capetown58:'
p2998
aS'@inducedcoma'
p2999
aS'@ArcturusRex4.'
p3000
aS'@abc'
p3001
aS'@AaronPha_q'
p3002
aS'@_______romeo'
p3003
aS'@AlphaTrebleSix'
p3004
aS'@JasonDufner'
p3005
aS'@Louie_Avella:'
p3006
aS'@TFalomir:'
p3007
aS'@jeffokrina:'
p3008
aS'@shaneandstamp:'
p3009
aS'@BilldaBeastII:'
p3010
aS'@hammsbear:'
p3011
aS'@jlow6603:'
p3012
aS'@monkeydogman'
p3013
aS'@sadatDM.'
p3014
aS'@todayshow'
p3015
aS'@extra__ChrisB:'
p3016
aS'@MikePhelps5:'
p3017
aS'@FuriousBlaze:'
p3018
aS'@18HolesJHanlin'
p3019
aS'@TrumpCollection:'
p3020
aS'@AnnDRomney'
p3021
aS'@TeamCavuto'
p3022
aS'@lmramlochan:'
p3023
aS'@Alan_Saranga'
p3024
aS'@Marooose'
p3025
aS'@BaatorKosu:'
p3026
aS'@susanvhinds'
p3027
aS'@Sherry09'
p3028
aS'@QFiveFarms'
p3029
aS'@TrumpCollection!'
p3030
aS'@BENBRICE7:'
p3031
aS'@2p2TrollCat:'
p3032
aS'@LarryOConnor:'
p3033
aS'@katie_0303'
p3034
aS'@wesbart53'
p3035
aS'@QuinnipiacPoll:'
p3036
aS'@EuropeanTour'
p3037
aS'@thegurleygirl:'
p3038
aS'@NCGOP'
p3039
aS'@bretech2:'
p3040
aS'@Karentalk'
p3041
aS'@seanhannity,'
p3042
aS'@tiffyluck:'
p3043
aS'@E_Chenault07:'
p3044
aS'@BroRay'
p3045
aS'@kathystone1221:'
p3046
aS'@TripAdvisor'
p3047
aS'@JoeBiden.'
p3048
aS'@iamgavinjame'
p3049
aS'@RepDeSantis'
p3050
aS'@nikkio:'
p3051
aS'@MikeRicks:'
p3052
aS'@TrumpDoral...'
p3053
aS'@moffiq'
p3054
aS'@TheViewTV'
p3055
aS'@Evan_Schiller'
p3056
aS'@KilloughCNN'
p3057
aS'@HoustonGunn:'
p3058
aS'@JoeBiden'
p3059
aS'@smxtty_'
p3060
aS'@jwhitlinger_GMP'
p3061
aS'@BarackObama--who'
p3062
aS'@PzFeed:'
p3063
aS'@florianooke'
p3064
aS'@Ddouble_J'
p3065
aS'@TomNocera:'
p3066
aS'@YoungBizUSA'
p3067
aS'@PIERPAOLOMONNI'
p3068
aS'@OfficialBQGirls'
p3069
aS'@SonnyGirard'
p3070
aS'@Jack_P_Ivory'
p3071
aS'@amandajoan40:'
p3072
aS'@kuuleme69'
p3073
aS'@ChipB:'
p3074
aS'@nypost.'
p3075
aS'@cory_wise'
p3076
aS'@WILDMANBS'
p3077
aS'@OutFrontCNN'
p3078
aS'@Faithful_USA:'
p3079
aS'@otto2468:'
p3080
aS'@kevinrleyland:'
p3081
aS'@nypost:'
p3082
aS'@dst1015:'
p3083
aS'@zagat!'
p3084
aS'@ChristineStergi:'
p3085
aS'@nbcstore'
p3086
aS'@haay_ramiiie:'
p3087
aS'@Brain__Quotes:'
p3088
aS'@DillonJQuinn:'
p3089
aS'@Reid2962'
p3090
aS'@stevebickerton2:'
p3091
aS'@kirstenspeirs:'
p3092
aS'@CondeNast'
p3093
aS'@BarNone1890:'
p3094
aS'@Patriots'
p3095
aS'@AngelProRoofing'
p3096
aS'@darbywelch:'
p3097
aS'@TalentedPaul'
p3098
aS'@steamjetboomer:'
p3099
aS'@phickeyma:'
p3100
aS'@JacobNiermeyer:'
p3101
aS'@CNBC:'
p3102
aS'@DannyZuker,'
p3103
aS'@CorsoC311'
p3104
aS'@jorgekb'
p3105
aS"@NickLangworthy's"
p3106
aS'@SharylAttkisson:'
p3107
aS'@chuckyc78:'
p3108
aS'@ben_techpro'
p3109
aS'@m_collective.'
p3110
aS'@LoriPatriot:Thank'
p3111
aS'@NYDailyNews'
p3112
aS'@bseybolt11'
p3113
aS'@chiksdigscars:'
p3114
aS'@juanmatava:'
p3115
aS'@mchalfant16"'
p3116
aS"@msnbctv's"
p3117
aS'@HumorInstitute:'
p3118
aS'@WeSupportTrump:'
p3119
aS'@IamToneAntone'
p3120
aS'@megliq:'
p3121
aS"@GolfWorld1's"
p3122
aS'@adrienne_jensen'
p3123
aS'@OgreUasshole:'
p3124
aS'@HayesRutherford'
p3125
aS'@chrishansen'
p3126
aS'@ZekeJMiller:'
p3127
aS'@themakaylamarie'
p3128
aS'@hshippey:'
p3129
aS'@TaynishaGray:'
p3130
aS'@ScreenPlayWritr:'
p3131
aS"@JonahNRO's"
p3132
aS'@clarkr3000'
p3133
aS"@fundanything's"
p3134
aS'@StephenWancha'
p3135
aS'@TravelBabe78:'
p3136
aS'@MarkkCole'
p3137
aS'@jayleno'
p3138
aS'@purpleheartwife'
p3139
aS'@ReevesMH'
p3140
aS'@jshamie:'
p3141
aS'@dojiedojie:'
p3142
aS'@TrumpChicago'
p3143
aS'@AP_Magazine'
p3144
aS'@PeterBevacqua'
p3145
aS'@frank_lemoine:'
p3146
aS'@WFinchner'
p3147
aS'@NeilWhinhamPGA:'
p3148
aS'@heidimac60:'
p3149
aS'@erintighe_:'
p3150
aS'@BillClinton'
p3151
aS'@DLEagency'
p3152
aS'@wwe?'
p3153
aS'@Helpfulcook:'
p3154
aS'@rickywill44:'
p3155
aS'@KBrocking:'
p3156
aS'@BanginBella'
p3157
aS'@TMobileHelp'
p3158
aS'@_CASSmoney_'
p3159
aS'@hrtbrknomore74'
p3160
aS'@haileybaldwin'
p3161
aS'@whodatinsurance:'
p3162
aS'@digitalspy'
p3163
aS'@GovernorPataki'
p3164
aS'@yrj77s:'
p3165
aS'@AimeeTruchan'
p3166
aS'@jennamstrachota:'
p3167
aS'@TrumpGolf'
p3168
aS'@JwalkerKid:'
p3169
aS'@borich1970:'
p3170
aS'@DavesBigWife:@Macys'
p3171
aS'@Mulder1981'
p3172
aS'@MarkMizzouSteel:'
p3173
aS'@DoleFoundation'
p3174
aS'@BlueWaterDays:'
p3175
aS'@terrymullery:'
p3176
aS'@RiqardPaliq'
p3177
aS'@Corte74'
p3178
aS'@CaledonianGolf:'
p3179
aS'@carlotalorenabr:'
p3180
aS'@boris3324'
p3181
aS'@afrodeziak:'
p3182
aS'@slone'
p3183
aS'@mikepassmore:'
p3184
aS'@strayamaaaate:'
p3185
aS'@michellerosexo:'
p3186
aS'@IBTimes:'
p3187
aS'@B_Cat41'
p3188
aS'@Macys'
p3189
aS'@KathiuskaFonsec:'
p3190
aS'@derekhough'
p3191
aS'@scapesrus'
p3192
aS'@Shootar401:'
p3193
aS'@GolfingLinksOrg:'
p3194
aS'@NargesNirumvala:'
p3195
aS'@BidwellP:'
p3196
aS'@Heritage:'
p3197
aS'@JohnBerman'
p3198
aS'@greengolf56:'
p3199
aS'@Redskins'
p3200
aS'@Antonio_Annesi:'
p3201
aS'@StoneBreakerII:'
p3202
aS'@nytimescollins'
p3203
aS'@resplatt123'
p3204
aS'@TODAY_Clicker'
p3205
aS'@TPM'
p3206
aS'@YoungBasedGod_g:'
p3207
aS'@maddiknick:'
p3208
aS'@zekejmiller:'
p3209
aS'@bingham_tammy:'
p3210
aS'@realDonald'
p3211
aS'@sgbrandonn:'
p3212
aS'@newengcollege'
p3213
aS'@Savi_Swizzle:'
p3214
aS'@beckyquickcnbc'
p3215
aS'@AaronMcAllorum:'
p3216
aS'@mersjm1:'
p3217
aS'@AbeGarver'
p3218
aS'@vicki_cedeno:'
p3219
aS'@WhoopiGoldberg,'
p3220
aS'@ACCronin8'
p3221
aS'@WWE?'
p3222
aS'@financeturd:'
p3223
aS'@mtneerjustice:'
p3224
aS'@WOR710'
p3225
aS'@WWE.'
p3226
aS'@EJ1469:'
p3227
aS'@hollyrpeete'
p3228
aS'@KevinWeatherbee'
p3229
aS'@Jeff713Jeffrey'
p3230
aS'@FuturisticHub:'
p3231
aS'@g3stover:'
p3232
aS'@aec4444:'
p3233
aS'@Maddie_Rene:'
p3234
aS'@NBC.'
p3235
aS'@rrpsllc'
p3236
aS'@TheBrodyFile'
p3237
aS'@felberjosh:'
p3238
aS'@mjtmueller:'
p3239
aS'@horher:'
p3240
aS'@MeaganShamy:'
p3241
aS'@MittRomney'
p3242
aS'@indigoblue65:'
p3243
aS'@lagooner111'
p3244
aS'@hrkbenowen'
p3245
aS'@ndwallace33:'
p3246
aS'@jannunz7'
p3247
aS'@ryanjorde'
p3248
aS'@Newsweek:'
p3249
aS'@RepJeffDuncan'
p3250
aS'@BenHyrne'
p3251
aS'@Cpac'
p3252
aS'@ASBrowntown:'
p3253
aS'@gulfportedd:'
p3254
aS'@YadiraTriunfo:'
p3255
aS'@AMOakabr:'
p3256
aS'@MacMiller'
p3257
aS'@amspec'
p3258
aS'@saugat_p:'
p3259
aS'@MikeBloomberg'
p3260
aS'@nydailynews:'
p3261
aS'@Trump_Charlotte:'
p3262
aS'@JonHuntsman'
p3263
aS'@nydailynews,'
p3264
aS'@JTHolder2010'
p3265
aS'@jeff_smith7:'
p3266
aS'@NBC--it'
p3267
aS'@nurse4bebes:'
p3268
aS'@elite_traveler:'
p3269
aS'@yokoono'
p3270
aS'@AnnaW81'
p3271
aS'@HowardJax50:'
p3272
aS'@AlanColmes'
p3273
aS'@WusongTweet'
p3274
aS'@HeinzFGuderian'
p3275
aS'@JacobKamarasJNS:'
p3276
aS'@Old_VanessaG:'
p3277
aS'@0'
p3278
aS'@PaulManni1'
p3279
aS'@RSPBScotland:'
p3280
aS'@AC360)'
p3281
aS'@insideFPL'
p3282
aS'@RandPaul'
p3283
aS'@nytimes'
p3284
aS'@josephangel247'
p3285
aS'@TimLeman:'
p3286
aS'@theRealKiyosaki'
p3287
aS'@MikeSington:'
p3288
aS'@GMatTRUMPNY'
p3289
aS'@donlemon'
p3290
aS'@gastronome2'
p3291
aS'@SpinningDisk:'
p3292
aS'@mrsschiff2010:'
p3293
aS'@christinelu:'
p3294
aS'@3Ddudra:'
p3295
aS'@Papimike1:'
p3296
aS'@trscoop:'
p3297
aS'@DrMarkStano:'
p3298
aS'@TheGINE3000:'
p3299
aS'@EncouragedEve'
p3300
aS'@Prayformetoo'
p3301
aS'@hollyammon:'
p3302
aS'@augustskaro'
p3303
aS'@seancourt:'
p3304
aS'@EN_Somat:'
p3305
aS'@SamRyzen'
p3306
aS'@markpizzaart:'
p3307
aS'@myGianLuca:'
p3308
aS'@AplemonLemon:'
p3309
aS'@EatSleepDan:'
p3310
aS'@GirlCant_helpit:'
p3311
aS'@marino_joanna:'
p3312
aS"@CNBC's"
p3313
aS'@robin1260'
p3314
aS"@JebBush's"
p3315
aS'@pellscuse11'
p3316
aS'@TheFive.'
p3317
aS'@jdistaso'
p3318
aS'@JustLuxe:'
p3319
aS'@mvill17:'
p3320
aS'@ReillyCarole:'
p3321
aS'@mikehyland21'
p3322
aS'@DEN_RG:'
p3323
aS'@LongetTerer:'
p3324
aS'@Nick_Da_Slick:'
p3325
aS'@JoeHo'
p3326
aS'@kensethfan7820:'
p3327
aS'@SteveHuang68'
p3328
aS'@Lood800'
p3329
aS'@REALDONALDTRUMP'
p3330
aS'@W_O_R_L_D_USA:'
p3331
aS'@lisalampanelli'
p3332
aS'@aj3fla'
p3333
aS'@fox8news'
p3334
aS'@GMatTRUMPNY:'
p3335
aS'@Rich9ie8:'
p3336
aS'@Whiskeyloop:'
p3337
aS'@Rinaldi20:'
p3338
aS'@trumpferrypoint'
p3339
aS'@RickSantorum'
p3340
aS'@ncwannabe-'
p3341
aS'@betterhermann'
p3342
aS'@real...'
p3343
aS'@gzchef'
p3344
aS'@Ry_Ceo:'
p3345
aS'@icenycbx'
p3346
aS'@futureicon:DonaldTrump'
p3347
aS"@AubreyODay's"
p3348
aS'@SpaceX'
p3349
aS'@bryt1330:'
p3350
aS'@operationsmile'
p3351
aS'@NBCNightlyNews.'
p3352
aS'@JasonSouhrada:'
p3353
aS'@GovtsTheProblem'
p3354
aS'@kimkardarshian3:'
p3355
aS'@prestwickgcpro'
p3356
aS'@PJAliveguy:'
p3357
aS'@salpie'
p3358
aS'@ZagatChicago'
p3359
aS'@seanhannity:'
p3360
aS'@MikeBloomberg,'
p3361
aS'@Dlund22226523:'
p3362
aS'@GwynethPaltrow'
p3363
aS'@socalmike_SD:'
p3364
aS'@Chuckdhere'
p3365
aS'@_Snurk:'
p3366
aS'@MikeBloomberg:'
p3367
aS'@jordanspieth'
p3368
aS'@kolbytraveller'
p3369
aS'@gdent1:'
p3370
aS'@trumpgolfla'
p3371
aS'@contrarian11'
p3372
aS'@BonJovi?'
p3373
aS'@UnitedContractF'
p3374
aS'@nbharuka'
p3375
aS'@Rizz_Lizz:'
p3376
aS'@BBPACK'
p3377
aS'@FloydMayweather'
p3378
aS'@wussydemon:'
p3379
aS"@piersmorgan's"
p3380
aS'@coolchange80'
p3381
aS'@DuchessofDallas'
p3382
aS'@SportsMotto:'
p3383
aS'@Iceman0921:'
p3384
aS'@SmartMeetings:'
p3385
aS'@omgnastygirl:'
p3386
aS'@tiaffo:'
p3387
aS'@minlarrycornel'
p3388
aS'@hmackie11:'
p3389
aS'@WWEfan123444'
p3390
aS'@ileadliberty:'
p3391
aS'@voicelikeariot_:'
p3392
aS'@RedState:'
p3393
aS'@kaiser1859:'
p3394
aS'@BornFreeAfrica'
p3395
aS'@mguarino64:'
p3396
aS'@Donnajcherold:'
p3397
aS'@ClassicEd'
p3398
aS'@JennaTalackova'
p3399
aS'@TheGreatGedi:'
p3400
aS'@darbizman'
p3401
aS'@fob2001:'
p3402
aS'@cherrie_stevens'
p3403
aS'@mcs3289:'
p3404
aS'@sonaderi:'
p3405
aS'@cheriecorso:'
p3406
aS'@thewoods575:'
p3407
aS'@BetteMidler"'
p3408
aS'@California_Bloo:'
p3409
aS'@RoyalTroonPro'
p3410
aS'@Jungledad'
p3411
aS'@zagat'
p3412
aS'@ForeverMcIn'
p3413
aS'@BNDarticles'
p3414
aS'@Operator1975'
p3415
aS'@becca110611:'
p3416
aS'@GolfweekPhotos'
p3417
aS'@WPOffshore:'
p3418
aS'@CallumPriest:'
p3419
aS'@Grizz524'
p3420
aS'@ArthurDeMeyer'
p3421
aS'@1290wjno:'
p3422
aS'@ussoccer'
p3423
aS'@J_TJOHNSON'
p3424
aS'@joepassov:'
p3425
aS'@integgriti:'
p3426
aS'@elenadavies'
p3427
aS'@Dattan78:'
p3428
aS'@ChooseChicago'
p3429
aS'@jjprl:'
p3430
aS'@mortimerzilch:'
p3431
aS'@nick_bailey:'
p3432
aS'@Dattan78.'
p3433
aS'@tonyparker1981:'
p3434
aS'@AlWaleedbinT"'
p3435
aS"@TrumpGolfDC's"
p3436
aS'@andrewwagner29:'
p3437
aS'@afolasoji'
p3438
aS'@MikeTyson'
p3439
aS'@renee2i'
p3440
aS'@WGinetta:'
p3441
aS'@crazymom28'
p3442
aS'@user33131:'
p3443
aS'@NFLONFOX-'
p3444
aS'@RoySchuhmacher:'
p3445
aS'@AFCHaywards'
p3446
aS'@RealDavisBauer'
p3447
aS'@LanceJunkin:'
p3448
aS'@thelastrefuge2'
p3449
aS'@gawker!'
p3450
aS'@DebraAnnGW:'
p3451
aS'@MedvedevRussiaE'
p3452
aS'@adidasGolf'
p3453
aS'@BfgBobgrant:'
p3454
aS'@marionx72'
p3455
aS'@MSJACKIEWOW:'
p3456
aS'@RKDrake'
p3457
aS'@Chowes247:'
p3458
aS'@rcarlc:'
p3459
aS'@SantanaCarlos'
p3460
aS'@LadyGaydar:'
p3461
aS'@BlessIsrael1948:'
p3462
aS'@ToddZ64:'
p3463
aS'@RowRee'
p3464
aS'@McIlroyRory'
p3465
aS'@macgecko:'
p3466
aS'@JimmyRobertsNBC:'
p3467
aS'@MrWayneRock:'
p3468
aS'@HEIDISEVERYDAY:'
p3469
aS'@deejaynik'
p3470
aS'@BarbaraGarro'
p3471
aS'@JanineGreenberg:'
p3472
aS'@NBC!"'
p3473
aS'@FatRotty'
p3474
aS'@MichaelCohen212:'
p3475
aS"@NewYorkPost's"
p3476
aS'@frankdimauro:'
p3477
aS'@hugshenderson'
p3478
aS'@tonyewen:'
p3479
aS"@acuconservative's"
p3480
aS'@JustinRose'
p3481
aS'@JesseNicholas13:'
p3482
aS'@TrumpSign'
p3483
aS'@frankpro'
p3484
aS'@scottymcd1980'
p3485
aS'@LetsBeckRush'
p3486
aS'@jeffraissle'
p3487
aS'@nbc6'
p3488
aS'@GrandmaNYCA:'
p3489
aS'@ZacharySperling:'
p3490
aS'@james_artherton:'
p3491
aS'@jrowson7'
p3492
aS'@nbc"'
p3493
aS'@nbc,'
p3494
aS'@HoppMar'
p3495
aS'@marknessmith:'
p3496
aS'@Stoic123'
p3497
aS'@kevcur8:'
p3498
aS'@briansaheed:'
p3499
aS'@DanielPipes:'
p3500
aS'@Brown97M'
p3501
aS'@Figlo7'
p3502
aS"@MacMiller's"
p3503
aS'@AlCardenasACU'
p3504
aS'@JoshMcElveen:'
p3505
aS'@JamesOKeefeIII'
p3506
aS'@JoelKrautter'
p3507
aS'@davidaxelrod'
p3508
aS'@bretmichaels!'
p3509
aS'@chefpatrickfahy'
p3510
aS'@bretmichaels.'
p3511
aS'@thatBrody:'
p3512
aS'@rickdavenport8'
p3513
aS'@Rockprincess818'
p3514
aS'@marcorubio'
p3515
aS'@bretmichaels:'
p3516
aS'@bradkovach'
p3517
aS'@BKleinGolfweek:'
p3518
aS'@TonyLaRussa'
p3519
aS'@TomMcPeek'
p3520
aS'@thehill:'
p3521
aS'@BigguhMikez:'
p3522
aS'@thehill"'
p3523
aS'@NYPD,'
p3524
aS'@WashingtonPost'
p3525
aS"@SInow's"
p3526
aS'@beltex63:'
p3527
aS'@David_Cameron,'
p3528
aS'@_under_current:'
p3529
aS'@JBoyle007.'
p3530
aS'@Andrew_Patrick'
p3531
aS'@foxandfriends...'
p3532
aS'@JebBush'
p3533
aS'@LisaRinna'
p3534
aS'@2pac_hologram'
p3535
aS'@leahanddean:'
p3536
aS'@Brammz3:'
p3537
aS'@nranews'
p3538
aS'@LuLuCornbread'
p3539
aS'@SinCityVinnie:'
p3540
aS'@ToryIreland'
p3541
aS'@doralresort'
p3542
aS'@itsHODAIFA'
p3543
aS'@wallsburg:'
p3544
aS'@divermam'
p3545
aS'@stalkinpeople'
p3546
aS'@SStew3:'
p3547
aS'@HuffPost'
p3548
aS'@aj_baldwin:'
p3549
aS'@usopengolf"'
p3550
aS'@Augustleo14:'
p3551
aS'@therealmarilu'
p3552
aS'@PiersMorganLive'
p3553
aS'@ReedTighe:'
p3554
aS'@TormeyPaul:'
p3555
aS'@rvedrenne:'
p3556
aS'@swan_investor'
p3557
aS'@haroldrschmidt:'
p3558
aS'@nate_north43:'
p3559
aS'@DaveDautel'
p3560
aS'@Abspara'
p3561
aS'@Brn2ShpFrcd2Wrk'
p3562
aS'@joshdronzek'
p3563
aS'@_ayley:'
p3564
aS'@gabepaul58:'
p3565
aS"@BLTPrimeMiami's"
p3566
aS"@JamesOKeefeIII's"
p3567
aS'@beny_benson'
p3568
aS'@showbiztonight'
p3569
aS'@StefJean:'
p3570
aS'@CONKJR:'
p3571
aS'@KennethHazlett'
p3572
aS'@MakeupArtist121:'
p3573
aS'@jgarrett214:'
p3574
aS'@HuffingtonPost'
p3575
aS'@Shadowbat'
p3576
aS'@whitehouse'
p3577
aS'@Marlins.'
p3578
aS'@kathy1453:'
p3579
aS'@RBransonNews:'
p3580
aS'@GoAngelo'
p3581
aS'@jasonCwaite:'
p3582
aS'@GolfweekMag'
p3583
aS'@_Mastersof:'
p3584
aS'@justariot66'
p3585
aS'@SenTenCes'
p3586
aS'@petewaite976'
p3587
aS'@DJohnsonPGA'
p3588
aS'@hookjan'
p3589
aS'@MagicMan121:'
p3590
aS'@JakeTapper'
p3591
aS'@WeWantMitt2016:'
p3592
aS'@salefisher'
p3593
aS'@Peruvianmuse'
p3594
aS'@CoachZachCooper:'
p3595
aS'@KatySutherland6'
p3596
aS'@lbstatkidd1977:'
p3597
aS'@sherrymcmurry'
p3598
aS'@FSTLTD'
p3599
aS'@rbdwalker:'
p3600
aS'@iAndyOlson:'
p3601
aS'@KingJonnie1:'
p3602
aS'@andres_3v:'
p3603
aS'@jsilva74366572'
p3604
aS'@tonyschiano:'
p3605
aS'@BW'
p3606
aS'@Chris_Owens1213'
p3607
aS'@hdiallo'
p3608
aS'@BmoreBadBoy81'
p3609
aS'@ForHomeSales:'
p3610
aS'@SStew3'
p3611
aS'@racrboi90:'
p3612
aS'@VerizonLGg2:'
p3613
aS'@rjispy'
p3614
aS'@ynggekko:'
p3615
aS'@mrbocce:'
p3616
aS'@SeddhmB:'
p3617
aS'@TrumpModels'
p3618
aS'@trumpinternational....'
p3619
aS'@Winger23:'
p3620
aS'@NathalieS_29'
p3621
aS'@boyscouts'
p3622
aS'@buffalobills'
p3623
aS'@PrayaHater:'
p3624
aS'@RealSheriffJoe'
p3625
aS'@MrsJRobbins:'
p3626
aS'@eminofficial'
p3627
aS'@JLaudner:'
p3628
aS'@Tbaldwin510Todd:'
p3629
aS'@theRealKiyosaki,'
p3630
aS'@CelebrityApprentice'
p3631
aS'@GarySinise'
p3632
aS'@trhdesign55:'
p3633
aS'@KPRC2'
p3634
aS'@JoeBloww79:'
p3635
aS'@GAPools'
p3636
aS'@bryanbruce:'
p3637
aS'@GolfTravelerBOS:'
p3638
aS'@scottlara1961'
p3639
aS'@hokie6:'
p3640
aS'@UStechie:'
p3641
aS'@stevenlas'
p3642
aS'@dustinjm19:'
p3643
aS'@WWE--@VinceMcMahon'
p3644
aS'@Rogerjmunson'
p3645
aS'@Women4Trump:'
p3646
aS'@fogslifting'
p3647
aS'@LGUS'
p3648
aS'@entrepreneur:'
p3649
aS'@Subdoc101:Trump'
p3650
aS'@Pekastar:'
p3651
aS'@NBA'
p3652
aS'@iansomerhalder'
p3653
aS'@trdny'
p3654
aS'@GolfChannel'
p3655
aS'@jesale84:'
p3656
aS'@JohnG500'
p3657
aS'@jaredcooper4'
p3658
aS'@maggie101956:'
p3659
aS'@TrumpToronto:'
p3660
aS'@joseangelSP500:'
p3661
aS'@paulteutulsr.'
p3662
aS'@pgatour_brianw:'
p3663
aS'@DashMan18'
p3664
aS'@Richard__Lewis:'
p3665
aS'@mckee16365:'
p3666
aS'@1DavidKim'
p3667
aS'@jshawknz:'
p3668
aS'@k_monchk'
p3669
aS'@chambertalk'
p3670
aS'@realDonaldTrumpLove'
p3671
aS'@BordenRhodes:'
p3672
aS'@Blvd'
p3673
aS'@pokerswayne'
p3674
aS'@miketilley13:'
p3675
aS'@thedropkicks'
p3676
aS'@piximania:'
p3677
aS'@scottmstringer.'
p3678
aS'@velvet2708:'
p3679
aS'@DickDarkey'
p3680
aS'@ClevelandGuy70:'
p3681
aS'@yewkalaylee'
p3682
aS'@BOB_EWASHINGTON:'
p3683
aS'@treyanastasio.'
p3684
aS'@martinmatishak:'
p3685
aS'@DareMagic:'
p3686
aS'@StuartAppleby'
p3687
aS'@joeyb134:'
p3688
aS'@UnabashedProg:'
p3689
aS'@thisismendim:'
p3690
aS'@Caleb_Watson:'
p3691
aS'@Expedia!'
p3692
aS'@TrumpToronto-'
p3693
aS'@No_Average_Joee:'
p3694
aS'@jtotoole'
p3695
aS'@SongMemories'
p3696
aS'@hpea0899:'
p3697
aS'@JoRoseM:'
p3698
aS'@maomaothecat:'
p3699
aS'@tperkins'
p3700
aS'@CNN'
p3701
aS'@RSPBScotland'
p3702
aS'@TrumpToronto'
p3703
aS'@RogerLMenard:'
p3704
aS'@badgirlofrockxx:'
p3705
aS'@AlyssaMenasci'
p3706
aS'@younggbon:'
p3707
aS'@piersmorganlive'
p3708
aS'@JandNsmaman:'
p3709
aS'@PICA_59'
p3710
aS'@lhcam:'
p3711
aS'@Forbes'
p3712
aS'@PennState--lost'
p3713
aS'@TrumpPhillyPro'
p3714
aS'@telegraphnews'
p3715
aS'@Mike_Hamilton69'
p3716
aS'@Sir_R_L:'
p3717
aS'@aberdeenshire'
p3718
aS'@TrumpNewYork.'
p3719
aS'@LouFerrigno!'
p3720
aS'@TrumpNewYork,'
p3721
aS'@LouFerrigno?'
p3722
aS'@PressSec'
p3723
aS'@moose_taz:'
p3724
aS'@WildcatThad'
p3725
aS'@TrumpNewYork:'
p3726
aS'@oreillyfactor'
p3727
aS'@scook5656:'
p3728
aS'@BabyPhatRox:'
p3729
aS'@kylegolfmtnbike:'
p3730
aS'@crowleyCNN'
p3731
aS'@marioraez1:'
p3732
aS'@apprenticenbc'
p3733
aS'@warrenlancewise:'
p3734
aS'@RonHromadka:'
p3735
aS'@trumpwinery:'
p3736
aS'@marcaputo"'
p3737
aS'@KingRollinZonez:'
p3738
aS'@DaveLetterman_'
p3739
aS'@GinoJRocco:'
p3740
aS'@marklevinshow"'
p3741
aS'@AENMAD:'
p3742
aS"@RickSantorum's"
p3743
aS'@DBrumm00:'
p3744
aS"@billlmaher's"
p3745
aS'@mcuban.'
p3746
aS'@ronsirak'
p3747
aS'@Slucas8Lucas:'
p3748
aS'@neaver82'
p3749
aS'@Todd_E_Anderson:'
p3750
aS'@cycick'
p3751
aS'@postcardsfromny:'
p3752
aS'@ayrracecourse'
p3753
aS'@Lexie_Chadss:'
p3754
aS'@matthew_cruz'
p3755
aS'@jry227'
p3756
aS'@southtguy:'
p3757
aS'@service_hell:'
p3758
aS'@ODedOnRealityTV'
p3759
aS'@TrumpTowerNY'
p3760
aS'@stevenkirk'
p3761
aS'@JakePalmer412:'
p3762
aS'@CalhounDeane:'
p3763
aS'@business:'
p3764
aS"@Israel's"
p3765
aS'@Djscotter:'
p3766
aS'@Sacha_B_Cohen'
p3767
aS'@Rhumeey:'
p3768
aS'@Lake:'
p3769
aS"@TrumpChicago's"
p3770
aS"@Trumptoronto's"
p3771
aS'@Tsheppe:'
p3772
aS'@riggs_deb:'
p3773
aS'@CelebBiach'
p3774
aS'@CNNLivingGolf'
p3775
aS'@prussell15:'
p3776
aS'@jwhurter'
p3777
aS"@CNTraveler's"
p3778
aS'@martintagg:'
p3779
aS'@MichaelWacha:'
p3780
aS'@justdoit377'
p3781
aS'@Nia_Sanchez_!'
p3782
aS'@Zigmanfreud:'
p3783
aS'@NOBLE74'
p3784
aS'@mike_carrion99:'
p3785
aS'@A_Buon'
p3786
aS'@StateDept'
p3787
aS'@judykennedy:'
p3788
aS'@rtesta:'
p3789
aS'@janecat60'
p3790
aS'@golf_com:'
p3791
aS'@lisarinna,'
p3792
aS'@bperez733:'
p3793
aS'@SpearsTim'
p3794
aS'@KentStGolf:'
p3795
aS'@JenniferJJacobs:'
p3796
aS'@Marky4792:'
p3797
aS'@3nVMusic'
p3798
aS'@reklaw78'
p3799
aS'@mchikkis:'
p3800
aS'@NickTryIt:'
p3801
aS'@TMobile'
p3802
aS'@Grinderswitch:'
p3803
aS'@niceprogressive'
p3804
aS'@slainsview'
p3805
aS"@GretchenCarlson's"
p3806
aS'@ComedyCentral'
p3807
aS'@Schwarzenegger,'
p3808
aS'@ckiker22'
p3809
aS'@kunle_jimber'
p3810
aS'@choosechicago'
p3811
aS'@HeinzPak'
p3812
aS'@Domeski1981:'
p3813
aS'@ReformedBroker'
p3814
aS'@iBusinessLounge:'
p3815
aS'@gameexpress1:'
p3816
aS'@TNVOLINFL:'
p3817
aS'@CharlesRBennett'
p3818
aS'@touchme721'
p3819
aS'@NBCSports:'
p3820
aS'@OFFICIAL_YL'
p3821
aS'@idiotninja24:'
p3822
aS'@ewilli1204'
p3823
aS'@LodgingMagazine'
p3824
aS'@brittneyplz'
p3825
aS'@NickThompsonPGA:'
p3826
aS'@TheGaryBusey'
p3827
aS'@Milliesappeal:'
p3828
aS'@polotodd804'
p3829
aS'@BossBuza:'
p3830
aS'@BillyGraham'
p3831
aS'@TMobileUK'
p3832
aS'@Core15'
p3833
aS'@TravlandLeisure'
p3834
aS'@Forbes"'
p3835
aS'@Mhennessh:'
p3836
aS'@cclkm:'
p3837
aS'@metanoik:'
p3838
aS'@JShue20'
p3839
aS'@dsherfinski'
p3840
aS'@JimmyFallon'
p3841
aS'@RDVarley:'
p3842
aS'@ell7654321:'
p3843
aS'@TrumpTowerNY-'
p3844
aS'@strombolijeff:'
p3845
aS'@ddobbs5253:'
p3846
aS'@RepEliotEngel:'
p3847
aS'@Steveleno80'
p3848
aS'@Locasio72:'
p3849
aS'@jeffzeleny:'
p3850
aS'@EGSIV:'
p3851
aS'@mjobrey27'
p3852
aS'@MoscowTimes'
p3853
aS'@heatherhaddon'
p3854
aS'@TheOaklandPress'
p3855
aS'@BRANDONTHRILL'
p3856
aS'@brentporter34:'
p3857
aS'@littlechutemike:'
p3858
aS'@Laker_Steve'
p3859
aS'@SFC17972:'
p3860
aS'@AndrewChrome:'
p3861
aS'@BarackObama"'
p3862
aS'@tobylight11:'
p3863
aS'@EveningExpress'
p3864
aS'@luwfcrule:'
p3865
aS'@TylerKrist734'
p3866
aS'@gabrielsherman'
p3867
aS'@davidc:'
p3868
aS"@McIlroyRory's"
p3869
aS'@Westclarepage:'
p3870
aS'@RobRucker:'
p3871
aS'@ReallyRAFord:'
p3872
aS'@REPLYBONURGENT:'
p3873
aS'@WWE'
p3874
aS'@trumpgolfla.'
p3875
aS'@earredondo'
p3876
aS'@citadelgop:'
p3877
aS'@nyknicks'
p3878
aS'@PhilipMorrow'
p3879
aS"@Cher's"
p3880
aS'@HuffPostPol'
p3881
aS'@fyrftr211:'
p3882
aS'@QVC'
p3883
aS'@Real_LukasHall:'
p3884
aS'@RobbReport'
p3885
aS'@TheBrodyFile,'
p3886
aS'@newscomauHQ'
p3887
aS'@TheBrodyFile:'
p3888
aS'@Brainbow_Bite:'
p3889
aS'@TheRealHabanero:'
p3890
aS"@TrumpScotland's"
p3891
aS'@mjpomor:'
p3892
aS'@davidco71875026:'
p3893
aS'@VisitScotNews'
p3894
aS'@SoyerJanis:'
p3895
aS'@jtan_from_ott:'
p3896
aS'@AllenWronowski.'
p3897
aS'@WeaverFever12:'
p3898
aS'@AllenWronowski:'
p3899
aS'@bdevil89:'
p3900
aS'@FlowWraps'
p3901
aS'@Miamimagazine'
p3902
aS'@steveprecision1'
p3903
aS'@ROOK_E:'
p3904
aS'@JohnRich-'
p3905
aS'@EDM___HEAD'
p3906
aS'@MansfieldRA'
p3907
aS'@SwingTrader2012:'
p3908
aS'@kwrcrow'
p3909
aS'@MoFarber'
p3910
aS'@TeaPartyExpress'
p3911
aS'@BradSaidWhat'
p3912
aS'@Rich_LaBelle'
p3913
aS'@AndrewWilkie85:'
p3914
aS'@BlackandBlondeM:'
p3915
aS'@realBrianBuxton:'
p3916
aS'@toypilaVzla:'
p3917
aS'@CreelKen'
p3918
aS'@DanProctor11:'
p3919
aS'@Mr_Schwab'
p3920
aS'@lovelyfighter8:'
p3921
aS'@GaryWilliamsGC'
p3922
aS'@cadillacchamp'
p3923
aS'@BJSeastoneAMP:'
p3924
aS'@Macys,'
p3925
aS'@22%'
p3926
aS'@Macys.'
p3927
aS'@limbaugh:'
p3928
aS'@Macys:'
p3929
aS"@Lord_Sugar--I'm"
p3930
aS'@Newsmax_Media"'
p3931
aS'@Macys?'
p3932
aS'@daveyhubb'
p3933
aS'@ChuckTodd'
p3934
aS'@TheView'
p3935
aS'@BroAnneWoo:'
p3936
aS'@NBC--full'
p3937
aS'@photomateme'
p3938
aS'@_buckyou:'
p3939
aS'@globegazette:'
p3940
aS'@EllonTimesKenny'
p3941
aS'@rebamoreland'
p3942
aS"@nypost's"
p3943
aS'@JasonHess14:'
p3944
aS'@ScottVanstory'
p3945
aS'@Way_CoolJr:'
p3946
aS'@pamfieberUPmag:'
p3947
aS'@torontolife'
p3948
aS'@grindingdude'
p3949
aS'@Danusia234'
p3950
aS'@skompa'
p3951
aS"@TheRevAl's"
p3952
aS'@mtshastacola'
p3953
aS'@BBC'
p3954
aS'@Tee_Rellzz:'
p3955
aS'@samahDanash'
p3956
aS'@3rdedit:'
p3957
aS'@CBSSports'
p3958
aS'@theFAMiLYLEADER'
p3959
aS'@TerryTm112444'
p3960
aS'@The_ClarkSide:'
p3961
aS'@duqVille:'
p3962
aS'@libertybellskp:'
p3963
aS'@Ilovethejays:'
p3964
aS'@JamesTheCrane:'
p3965
aS'@clayaiken'
p3966
aS'@alumadrifter:'
p3967
aS'@HamptonsMag:'
p3968
aS'@turkeyofmurica:'
p3969
aS'@NewsRadio967'
p3970
aS'@wRiTeItNoW_:'
p3971
aS'@EMTgoneNUTZ'
p3972
aS'@DannBushh'
p3973
aS'@aubreyoday!'
p3974
aS'@fackinpeter:'
p3975
aS'@Mom2MNO:'
p3976
aS'@JoeBIden'
p3977
aS'@LaurD123:'
p3978
aS'@meetthepress'
p3979
aS'@LodgeatDoonbeg'
p3980
aS'@PiersTonight"'
p3981
aS'@Realistboutmine:'
p3982
aS'@marianne_hund'
p3983
aS'@ccrealty2:'
p3984
aS'@fahntastic24601:'
p3985
aS'@TrumpPanama.'
p3986
aS'@JamersonHayes:'
p3987
aS'@amandatmiller'
p3988
aS'@SteveDeaceShow.'
p3989
aS'@TrumpPanama:'
p3990
aS'@TheRonnnn:'
p3991
aS'@TheJordanHafizi'
p3992
aS'@absabella'
p3993
aS'@JamersonHayes,'
p3994
aS'@kayceelaw:'
p3995
aS'@PyperProblems:'
p3996
aS'@ivalbuena:'
p3997
aS'@amazon'
p3998
aS'@brose2288:'
p3999
aS'@KarlRove'
p4000
aS'@SenJohnMcCain'
p4001
aS'@DonaldTrump2016'
p4002
aS'@jimmyfallon'
p4003
aS'@johfax:'
p4004
aS'@neddust'
p4005
aS'@AlexPappas:'
p4006
aS'@GoCoastToCoast:'
p4007
aS'@BmitchliveCSN'
p4008
aS'@gallupnews'
p4009
aS"@Moody's"
p4010
aS'@BestPhotosEver:'
p4011
aS'@RustyWallace:'
p4012
aS'@OfficialTentBoy:'
p4013
aS'@surferev:'
p4014
aS'@Helena_Torry'
p4015
aS'@kimfloyd2012:'
p4016
aS'@WartburgCollege'
p4017
aS'@Kennokevin:'
p4018
aS'@DianeLynn_:'
p4019
aS'@Bchipper83:'
p4020
aS'@TrumpGolf:'
p4021
aS'@AveGratiaPlena:'
p4022
aS'@RyanSeacrest'
p4023
aS'@woodruffbets'
p4024
aS'@alyssa_kordish:'
p4025
aS'@kristinkgl'
p4026
aS'@M_A_F:'
p4027
aS'@imnotsochey'
p4028
aS'@RubenNavarrette'
p4029
aS'@Denver_Broncos'
p4030
aS'@grahamclark:'
p4031
aS'@trumptowerpde'
p4032
aS'@saychowder'
p4033
aS'@robertpatrickmc:'
p4034
aS'@johnyc46:'
p4035
aS'@timestribune'
p4036
aS'@IamStevenT'
p4037
aS'@CosmosTickets:'
p4038
aS'@hamishjoy'
p4039
aS'@DailyBeast'
p4040
aS'@ComplexGenius'
p4041
aS'@AllenWronowski'
p4042
aS'@sammybo73392412'
p4043
aS'@businessinsider:'
p4044
aS'@chriswerner1988'
p4045
aS'@judibluiz99:'
p4046
aS'@coalitionChi:'
p4047
aS'@Andigriffin'
p4048
aS'@Chuck_Kelly13'
p4049
aS'@vraia:'
p4050
aS'@Dale26:'
p4051
aS'@Macy\'s."'
p4052
aS'@mstacey9'
p4053
aS'@BrandenRoderick.'
p4054
aS'@Michelle'
p4055
aS'@anandpatel76'
p4056
aS'@lawrence'
p4057
aS'@martinshil:'
p4058
aS"@megynkelly's"
p4059
aS'@JPNwrites'
p4060
aS'@tstreck:'
p4061
aS'@RedSox'
p4062
aS'@Y0landaRiggins'
p4063
aS'@Shaughnessy89:'
p4064
aS'@tkdhardy:'
p4065
aS'@ISAACYASS:'
p4066
aS'@Jnakes77'
p4067
aS'@FlushingHearing'
p4068
aS'@teslu888:'
p4069
aS'@hbo'
p4070
aS'@nhowe'
p4071
aS'@betterhermann:'
p4072
aS'@TheYardSaleKing:'
p4073
aS'@MarshaBlackburn:'
p4074
aS'@maffucci93:'
p4075
aS'@MLawts12:'
p4076
aS'@_SethMade:'
p4077
aS'@RealRomaDowney'
p4078
aS'@KPPhotography38'
p4079
aS'@ScotGolfPodcast:'
p4080
aS'@mets'
p4081
aS'@TrumpGolfDC'
p4082
aS'@MiketheScrew:'
p4083
aS'@timcarman:'
p4084
aS'@ortonsearch'
p4085
aS'@SmuMom54'
p4086
aS'@bonn66'
p4087
aS'@JamesPDonahue1:'
p4088
aS'@germany28364'
p4089
aS'@Mohris:'
p4090
aS'@ilory:'
p4091
aS'@NYGovCuomo'
p4092
aS'@ColinSWood:'
p4093
aS'@Steelchecker'
p4094
aS'@rightjj:'
p4095
aS'@CNJohansens'
p4096
aS'@davidrwoods:'
p4097
aS"@DJPaulyD's"
p4098
aS'@bluejoni'
p4099
aS'@jenconservative:'
p4100
aS'@zp_3:'
p4101
aS'@Dzeroseven'
p4102
aS'@GeorgeWilson777'
p4103
aS'@SteveMullaney1:'
p4104
aS'@TeamCavuto.'
p4105
aS'@liexafterxlie:'
p4106
aS'@marcorubio.'
p4107
aS'@OsamaBinBallinn:'
p4108
aS'@pbstwo:'
p4109
aS'@ElsForAutism'
p4110
aS'@TheApprentice9'
p4111
aS'@GaryWhalenTV'
p4112
aS'@AndrewStilesUSA'
p4113
aS"@GolfDigestMag's"
p4114
aS'@DoralResort'
p4115
aS'@WhiteShaunwhite'
p4116
aS'@MsMEGZILLA:'
p4117
aS'@JCL30'
p4118
aS'@crystal_night20:'
p4119
aS'@Rosie'
p4120
aS'@rmutt_17:'
p4121
aS'@jtotoole:'
p4122
aS'@oates_tom'
p4123
aS'@TWC.'
p4124
aS'@Alexcrter:'
p4125
aS'@saves_umoney:'
p4126
aS'@DannyBOiling'
p4127
aS'@Madrina26:'
p4128
aS'@Shella_Bella:'
p4129
aS'@peenerad'
p4130
aS'@ezt91:'
p4131
aS'@MJosephSheppard:'
p4132
aS'@GoHardYoung:'
p4133
aS'@s__nguyen:'
p4134
aS'@Teerellz_95'
p4135
aS'@Gil_Delgado:'
p4136
aS'@muireb_tpnd:'
p4137
aS'@dcexaminer'
p4138
aS'@scdtan:'
p4139
aS'@ChooseChicago:'
p4140
aS'@15pinnacle:'
p4141
aS'@kevconnorsespn.'
p4142
aS'@felinemenice'
p4143
aS'@laurence_hasson'
p4144
aS'@obamafraudulent:'
p4145
aS'@vabeachrpm:'
p4146
aS'@scottallenlewis:'
p4147
aS'@rachelweinerwp'
p4148
aS'@GeorgeFWill'
p4149
aS'@missusa,'
p4150
aS'@Andrew_purcell'
p4151
aS'@SharNeal:'
p4152
aS'@SportTechie:'
p4153
aS'@cspanPolitics:'
p4154
aS'@RW84JR:'
p4155
aS'@rjchoppy'
p4156
aS'@Show5783'
p4157
aS'@RealMeatLoaf'
p4158
aS'@TrishthedisH789:'
p4159
aS'@L3nny85'
p4160
aS'@JeremyPage3011'
p4161
aS'@RockChalkSpence'
p4162
aS'@HargraveGlobal:'
p4163
aS'@ocrp'
p4164
aS'@ConnieHegel:'
p4165
aS'@RealShaneHiles'
p4166
aS'@vdare'
p4167
aS'@commonguymd'
p4168
aS'@Subhana_Anwar:'
p4169
aS'@luxury:'
p4170
aS'@mccoykellen:'
p4171
aS'@rodstowell73'
p4172
aS'@bretmichaels...'
p4173
aS'@MatthewSmales1:'
p4174
aS'@Retrogirl01'
p4175
aS'@Jetsetterdotcom:'
p4176
aS'@AnnAmplf'
p4177
aS'@trcyhwlls:'
p4178
aS'@collinsva:'
p4179
aS'@Ben_Burke10:'
p4180
aS'@JavaMedic'
p4181
aS'@ToddThomson12'
p4182
aS'@dlayphoto:'
p4183
aS'@GilCharles:'
p4184
aS'@THESethFriend'
p4185
aS'@alexsalmond'
p4186
aS'@bella270012:DonaldTrump'
p4187
aS'@mstanish53:'
p4188
aS'@DonDonS1383:'
p4189
aS'@TrumpIntRealty:'
p4190
aS'@jenconservative'
p4191
aS'@KingAmory:'
p4192
aS'@BobSmit98038199:'
p4193
aS'@ckottlarock:'
p4194
aS'@kswizzle43:'
p4195
aS'@LuxuryDesignFR'
p4196
aS'@dennisrodman'
p4197
aS'@Carbuccia'
p4198
aS'@MirandaMattos1:'
p4199
aS'@Tid4Prez:'
p4200
aS'@MacMiller?'
p4201
aS'@Rodzillatron1:'
p4202
aS'@LBabcock2:'
p4203
aS'@Tea_Alliance:'
p4204
aS'@arabinkid88'
p4205
aS'@MacMiller-'
p4206
aS'@SamSteel10:'
p4207
aS'@MacMiller"'
p4208
aS'@Herr_Barclay:'
p4209
aS'@ULTIMATE_TREE:'
p4210
aS'@espn'
p4211
aS'@MasterSasser:'
p4212
aS'@MarketWatch:'
p4213
aS'@aspieprobs:'
p4214
aS'@maximusreign:'
p4215
aS'@netanyahu?'
p4216
aS'@nymike7:'
p4217
aS'@TishaLewis'
p4218
aS'@DukeCastiglione'
p4219
aS'@LisaLampanelli.'
p4220
aS'@bigD921:'
p4221
aS'@netanyahu.'
p4222
aS'@Legend_Hutch:'
p4223
aS'@colemandonna61:'
p4224
aS'@netanyahu"'
p4225
aS'@Fo'
p4226
aS'@JamesOkeefelll'
p4227
aS'@DELAVEGAPROPHET:'
p4228
aS'@DOWNFALLOFUSA:'
p4229
aS'@LaureusSport:'
p4230
aS'@Ammoland'
p4231
aS'@LimitGovt:'
p4232
aS'@StefanVersac:'
p4233
aS'@Carl_C_Icahn:'
p4234
aS'@TGowdySC'
p4235
aS'@divermam:'
p4236
aS'@atrlimo'
p4237
aS'@lord_sugar'
p4238
aS"@BarackObama's"
p4239
aS'@James00549702:'
p4240
aS'@resplatt123:'
p4241
aS'@calebsthomas'
p4242
aS'@DRODELL76'
p4243
aS'@TrumpWaikiki!'
p4244
aS'@foxnews'
p4245
aS'@MRJMF1'
p4246
aS'@LKDUSA:'
p4247
aS'@jheil"'
p4248
aS'@TrumpWaikiki.'
p4249
aS'@speednviolence'
p4250
aS'@MarthaStewart'
p4251
aS'@TrumpWaikiki:'
p4252
aS'@tonyarolandtr:'
p4253
aS"@Macy's?"
p4254
aS'@WantonSoop'
p4255
aS'@pwnza'
p4256
aS"@IntTravellerMag's"
p4257
aS'@Joshua_Weaver_:'
p4258
aS'@Ed_Klein"'
p4259
aS'@Harut_Arthur:'
p4260
aS'@lucascoon1:'
p4261
aS'@BarbaraJWalters'
p4262
aS'@SpectacularScot:'
p4263
aS'@ArkieLad'
p4264
aS'@brentcfritz'
p4265
aS'@Wharton'
p4266
aS'@flashdad21:'
p4267
aS'@reason:'
p4268
aS'@mikewarner1976'
p4269
aS'@chrisfalcodrago:'
p4270
aS'@joncford:'
p4271
aS'@RayTirado'
p4272
aS'@TheBig_Easy:'
p4273
aS'@WaldorfNYC'
p4274
aS'@Party__2016:'
p4275
aS'@BravoAndy,'
p4276
aS'@ec364'
p4277
aS'@BrosHoban'
p4278
aS'@Duchess_Woody:'
p4279
aS"@seanhannity's"
p4280
aS'@jakematt1999:'
p4281
aS'@MANDCNorthEast'
p4282
aS'@CNNPolitics'
p4283
aS'@Israel.'
p4284
aS'@QueenBarbie69:'
p4285
aS'@Whatyouknowjr:'
p4286
aS'@nanaelaine7:'
p4287
aS'@y2ej72:'
p4288
aS'@Vegascom'
p4289
aS'@GWONDER6:'
p4290
aS'@TheOnlyMOD:'
p4291
aS'@c4662:'
p4292
aS'@spsmith78'
p4293
aS'@PeteRose'
p4294
aS'@johnnydollar01'
p4295
aS'@thecelidebiasio'
p4296
aS'@BetteMidler'
p4297
aS'@PhilipRucker'
p4298
aS'@josegonzalez_69'
p4299
aS'@Naplessun4664:'
p4300
aS'@DonaldJTrumpJr"'
p4301
aS'@mosanimusa:'
p4302
aS'@otcgiant:'
p4303
aS'@nadeaua75:'
p4304
aS'@ScottKWalker'
p4305
aS'@BubbasLmky'
p4306
aS'@rhino848484:'
p4307
aS'@PMPrindiville'
p4308
aS'@JakeTiger25:'
p4309
aS'@bcfccityisours'
p4310
aS'@VanityFair'
p4311
aS'@AutumnJuliaa:'
p4312
aS'@mierz1824:'
p4313
aS'@LisaMills62:'
p4314
aS'@buffalobills.'
p4315
aS'@manny_ottawa:'
p4316
aS'@amy_pardue:'
p4317
aS'@mitchell_silver'
p4318
aS'@chrisr52'
p4319
aS'@TimeWarner'
p4320
aS'@TrumpNH'
p4321
aS'@attaanago:'
p4322
aS'@woodardralph31:'
p4323
aS'@bfox9806:'
p4324
aS'@fxlozano:'
p4325
aS'@Kathe56Kat:'
p4326
aS'@PReedGolf'
p4327
aS'@Van_in_DC'
p4328
aS'@topsurveys'
p4329
aS'@lancebagley1:'
p4330
aS'@MorenoDadKC'
p4331
aS'@NCGOP:'
p4332
aS'@ShaneODonoghue'
p4333
aS'@Reuters_Biz,'
p4334
aS'@djdavisg:'
p4335
aS'@Naplessun4664'
p4336
aS'@RingSherry'
p4337
aS'@19thWheel:'
p4338
aS'@digitaljournal:'
p4339
aS'@TimTebow.@TimTebow'
p4340
aS'@kevinZhumphries:'
p4341
aS'@Damacakoya'
p4342
aS'@905K9'
p4343
aS'@RonCanova:'
p4344
aS'@periscopeco.'
p4345
aS'@ilpostio'
p4346
aS'@ss_iwano:'
p4347
aS'@JordanSpeith'
p4348
aS'@JWysocki91:'
p4349
aS'@Boycottmaypac:'
p4350
aS"@TrumpWaikiki's"
p4351
aS'@stevewest222:'
p4352
aS'@salesdan48:'
p4353
aS'@JoshinAk:'
p4354
aS'@amit_'
p4355
aS'@Spinthemap:'
p4356
aS'@PGAGrandSlam:'
p4357
aS'@mishuboo:'
p4358
aS'@madrox91:'
p4359
aS'@AlorAcai:'
p4360
aS'@JoanSlavin1'
p4361
aS'@Foxandfriends'
p4362
aS'@WSJSports:'
p4363
aS'@JTFoxx'
p4364
aS'@Giants'
p4365
aS'@Frankie_Rap'
p4366
aS'@InsureRetire'
p4367
aS'@housecalls1228:'
p4368
aS'@dongfuture:'
p4369
aS'@scottienhughes'
p4370
aS'@SeanKAnderson:'
p4371
aS'@abaldwin31'
p4372
aS'@RobAstorino'
p4373
aS'@kaatje36'
p4374
aS'@RaxsonDFS:'
p4375
aS'@breadman28'
p4376
aS'@TrainSpartanFit'
p4377
aS'@MollyCBraswell:'
p4378
aS'@CCPLiberty:'
p4379
aS'@ASavageNation'
p4380
aS'@PatrickBlackbrn:'
p4381
aS'@STOashley:'
p4382
aS'@securefreedom'
p4383
aS'@Thaddalicious:'
p4384
aS'@gllleymon900000'
p4385
aS'@delveezus:'
p4386
aS'@zionslion777:'
p4387
aS'@KarenHaywood3:'
p4388
aS'@johan_jwc'
p4389
aS'@Emmacochrane9'
p4390
aS'@ThisWeekABC'
p4391
aS'@RogerJStoneJr:'
p4392
aS'@TormeyPaul'
p4393
aS'@alexsiminoff:'
p4394
aS'@TrumpNationalNY'
p4395
aS'@sacquisto23:'
p4396
aS'@Politicalhit:'
p4397
aS'@Stevieboy_63:'
p4398
aS'@PatKetley:'
p4399
aS'@PrestonsDayOff'
p4400
aS'@businessinsider'
p4401
aS'@alex_leventis'
p4402
aS'@AlorAcai'
p4403
aS'@TheSportsSwede:'
p4404
aS'@KierenAsh'
p4405
aS'@realmissnvusa'
p4406
aS'@Slim_Shady2o3:'
p4407
aS'@cloverc8'
p4408
aS'@RBC:'
p4409
aS'@NRO'
p4410
aS'@rockinthetote:'
p4411
aS'@Ex369PPD'
p4412
aS'@RepLeadConf'
p4413
aS'@NRA'
p4414
aS'@CRCalderwood1:'
p4415
aS'@NBCNewYork:'
p4416
aS'@HollyMo15146097:'
p4417
aS'@jshawknz'
p4418
aS'@TPFA_KathyA_1:'
p4419
aS'@AAcrowellt:'
p4420
aS'@RichJohnson1973:'
p4421
aS'@Ryalsflair:'
p4422
aS'@CatheMazanowicz:'
p4423
aS'@OwenKelly'
p4424
aS'@xwellLudwig:'
p4425
aS'@deesnider'
p4426
aS'@TAGIII:'
p4427
aS'@lifesanthem'
p4428
aS'@DCGovWeb'
p4429
aS'@coollikeelvis:'
p4430
aS'@timjcam:'
p4431
aS'@huffingtonpost'
p4432
aS'@birchtrees47:'
p4433
aS'@DoomsdayFAN'
p4434
aS'@JJcompitGolf:'
p4435
aS'@ron_fournier'
p4436
aS'@Zimbo251:'
p4437
aS'@adammatruski:'
p4438
aS'@me2palas1yap:'
p4439
aS'@BrandonBerens22:'
p4440
aS'@Dinamico_7:'
p4441
aS'@ImAliveaRuis'
p4442
aS'@jamezypell'
p4443
aS'@markus_42'
p4444
aS'@Trump_Ireland.'
p4445
aS'@LeighAnnMac'
p4446
aS'@Terrell87:'
p4447
aS'@foxandfriends!'
p4448
aS'@Kevinsherwin'
p4449
aS'@foxandfriends,'
p4450
aS'@foxandfriends.'
p4451
aS'@jerrynoce'
p4452
aS'@luciab1'
p4453
aS'@wendy1134:'
p4454
aS'@Matt_Cad:'
p4455
aS"@AdamRifkin's"
p4456
aS'@OneMikex:'
p4457
aS'@foxandfriends?'
p4458
aS'@Raul_Esquire'
p4459
aS'@foxandfriends:'
p4460
aS'@edcloud9:'
p4461
aS'@Chris_McNall'
p4462
aS'@HuizingaDanny'
p4463
aS'@Ford'
p4464
aS'@Newsmax'
p4465
aS'@Smilin_Smuggler'
p4466
aS'@tixxannatrix'
p4467
aS'@Hoggoblin34:'
p4468
aS'@lovebautistafan:'
p4469
aS'@laurconnors'
p4470
aS'@JeremiahWright'
p4471
aS'@GravisMarketing:'
p4472
aS'@pretrim10'
p4473
aS'@BenjaminSakhai:'
p4474
aS'@TIMEPolitics'
p4475
aS'@5gentexan'
p4476
aS'@dabadger:'
p4477
aS'@akmackey:'
p4478
aS'@nodramahea:'
p4479
aS'@sdillam:'
p4480
aS"@gretawire's"
p4481
aS'@SherriHill'
p4482
aS'@PaulaDuvall2:'
p4483
aS'@theviewtv'
p4484
aS'@_itsTracy:'
p4485
aS'@SMW5683:'
p4486
aS'@littlevd23:'
p4487
aS'@CondeNastCorp'
p4488
aS'@MyGolfConcierge:'
p4489
aS'@Krause_Don:'
p4490
aS'@71Kristine:'
p4491
aS'@Greener17wing:'
p4492
aS'@MrJerryOC!"'
p4493
aS'@JimPethokoukis'
p4494
aS'@DO814:'
p4495
aS'@hunterw:'
p4496
aS'@MissCassie1230'
p4497
aS'@AlexArancio:'
p4498
aS'@kathyshirer:'
p4499
aS'@ChadRKane:'
p4500
aS"@BloombergTV's"
p4501
aS'@Stephanielk1:'
p4502
aS'@dannyzuker.'
p4503
aS'@PREACHPALERIDER:'
p4504
aS'@Jdwillms1Jeff'
p4505
aS'@MayaAlusik:'
p4506
aS'@NewsmaxTV'
p4507
aS'@Greek1958'
p4508
aS'@YankeeRunnerLV:Whether'
p4509
aS'@sunayciner:'
p4510
aS'@TONYWELCH007:'
p4511
aS'@AdamScott'
p4512
aS'@madmartinez'
p4513
aS'@realDonaldTrump.I'
p4514
aS'@SusanSkeldon:'
p4515
aS'@RC_Bridgeworth:'
p4516
aS'@wkxlnh:'
p4517
aS'@TheNordicBroad'
p4518
aS'@afowler2k:'
p4519
aS'@foxandfriends..'
p4520
aS'@jm9145:'
p4521
aS'@Josethegr8t:'
p4522
aS"@NewYorkObserver's"
p4523
aS'@ANHQDC'
p4524
aS'@scorpio5053:'
p4525
aS'@ribkamaria1:'
p4526
aS'@WalterHorsting:'
p4527
aS'@Chuck_Kelly1'
p4528
aS'@STVNews'
p4529
aS'@AJFrugoli'
p4530
aS'@TheTodaysGolfer'
p4531
aS'@LendonDonna:'
p4532
aS'@trentnanny09'
p4533
aS'@anthonydefrenza:'
p4534
aS'@DynamyteBeats:'
p4535
aS'@JakeAwK:'
p4536
aS'@SchmidtTona:'
p4537
aS'@THEBillMcGee:'
p4538
aS'@BretMichaels'
p4539
aS'@troytreanor:'
p4540
aS'@realDonaldTrump."'
p4541
aS'@richtweett'
p4542
aS'@CharlieMaikis'
p4543
aS'@WarmNewt'
p4544
aS'@Insanepricing'
p4545
aS'@TheRock'
p4546
aS'@lanele123'
p4547
aS'@realjuliemallen'
p4548
aS'@WrestleMania'
p4549
aS'@TrumpDoral:'
p4550
aS'@nyrangers'
p4551
aS'@ryanrockefelker'
p4552
aS'@ToryIreland:'
p4553
aS'@TrumpDoral,'
p4554
aS'@TrumpDoral-'
p4555
aS'@TrumpDoral.'
p4556
aS'@JayCostTWS:'
p4557
aS'@DennisRodman.'
p4558
aS'@TrumpDoral!'
p4559
aS'@TrumpDoral"'
p4560
aS'@heyavampirebat'
p4561
aS'@jimmy_arellano'
p4562
aS'@griffithspb'
p4563
aS'@DennyHuntington'
p4564
aS'@NHLBruins'
p4565
aS'@greta:'
p4566
aS'@JUSTGRIND:'
p4567
aS'@RULivingLife:'
p4568
aS'@joeplaysdrums'
p4569
aS'@PlatinumRosie'
p4570
aS'@MisterMcFlee'
p4571
aS'@ashley_rad1432:'
p4572
aS'@elianayjohnson"'
p4573
aS'@GeraldoRivera'
p4574
aS'@Ajcarpenter0'
p4575
aS'@WSGbeme:'
p4576
aS'@johnsununu'
p4577
aS'@BrightonPatriot'
p4578
aS'@EllieReynolds4'
p4579
aS'@TheInvestShow'
p4580
aS'@drvanderbloomen:'
p4581
aS'@GiftOfGod1994'
p4582
aS'@TomLlamasABC'
p4583
aS'@84Celtics:'
p4584
aS'@bllheaded'
p4585
aS'@__Mickey_Mouse'
p4586
aS'@gshuba:'
p4587
aS'@fear_no_evil89'
p4588
aS'@TheBigJamesG:'
p4589
aS'@jijassim'
p4590
aS'@dryheat115'
p4591
aS'@Jackclemens1:'
p4592
aS'@1Barbara1:'
p4593
aS'@TheTeflonDante:'
p4594
aS'@DonnieHawes:'
p4595
aS'@dhfr64'
p4596
aS'@jantwo62:'
p4597
aS'@davesportsgod:'
p4598
aS'@tropic20:'
p4599
aS'@robinrn'
p4600
aS'@MIGOP'
p4601
aS'@lunar_kismet15:'
p4602
aS'@jaredkushner'
p4603
aS'@jodiyilek'
p4604
aS'@cbschicago'
p4605
aS'@noahhoch:'
p4606
aS'@Britinnv'
p4607
aS'@gfstew:'
p4608
aS'@schulesix3'
p4609
aS'@1BrianPadilla'
p4610
aS'@TrumpIntlRealty'
p4611
aS'@MSKIBBS1:'
p4612
aS'@MarioLopezExtra'
p4613
aS'@KimBredesen'
p4614
aS'@daveonthejob:'
p4615
aS'@WayneRoot'
p4616
aS'@tbclem2:'
p4617
aS'@dickquinn:'
p4618
aS'@KillngAmerJobs'
p4619
aS'@davidkaifaith'
p4620
aS'@shousman86:'
p4621
aS'@VAWine:'
p4622
aS'@Mikeveltman'
p4623
aS'@TIME'
p4624
aS'@XenaHer1'
p4625
aS'@christuhglo:'
p4626
aS'@CeIebHomes:'
p4627
aS'@NHPSC:'
p4628
aS"@MonicaCrowley's"
p4629
aS'@ShepherdGarrett:'
p4630
aS'@Macys."'
p4631
aS'@costareports:'
p4632
aS'@bluesmanSINY'
p4633
aS'@Mediaite"'
p4634
aS'@atlthrasher'
p4635
aS'@ananavarro'
p4636
aS'@mj_lee:'
p4637
aS'@LoomisEvan:'
p4638
aS'@donmarie16'
p4639
aS'@smxtty_:'
p4640
aS'@MasterBaxter8:'
p4641
aS'@RepDavid'
p4642
aS'@RDPomin:'
p4643
aS'@AndyBran:'
p4644
aS'@digitalspyus:'
p4645
aS'@DANCESWITHMETAL'
p4646
aS'@SamJabbo:'
p4647
aS'@aawsat_eng'
p4648
aS'@DylanHEndlich:'
p4649
aS'@eddyPham:'
p4650
aS"@USAToday's"
p4651
aS'@TalismanJohnnyA:'
p4652
aS'@FTLifeArts'
p4653
aS'@JcoyShox25:'
p4654
aS'@OceanDriveMag'
p4655
aS'@PierceCorey'
p4656
aS'@mlnluis:'
p4657
aS'@odonnelltw:'
p4658
aS'@jbluvx2'
p4659
aS'@GretchenCarlson'
p4660
aS'@christsonton:'
p4661
aS'@powerhitter23:'
p4662
aS'@blazo7:'
p4663
aS'@jheil'
p4664
aS"@Macy's"
p4665
aS'@Fund_Anything'
p4666
aS'@MISSUNIVERSE43'
p4667
aS'@themasters!'
p4668
aS'@RyanSeanHeron:'
p4669
aS'@kosstar'
p4670
aS'@bigdoubie56:'
p4671
aS'@WMUR9_Politics:'
p4672
aS'@tripadvisor'
p4673
aS'@grantrobertb'
p4674
aS'@JoyceGoodman64:'
p4675
aS'@DamnitJustin:'
p4676
aS'@bpolitics'
p4677
aS'@TheMayorMatt'
p4678
aS'@fitsnews:Donald'
p4679
aS'@hollywood74'
p4680
aS'@I_Am_Optimistic'
p4681
aS'@PrimMrs:'
p4682
aS'@ChrisCJackson:'
p4683
aS'@NewDay:'
p4684
aS'@hunterhayes'
p4685
aS'@2014_vince:'
p4686
aS'@hyda313:'
p4687
aS'@The_INDYpendent:'
p4688
aS'@TrumpNationalLA'
p4689
aS'@FASHfrontrunner:'
p4690
aS'@lorenzolamas'
p4691
aS'@toddstarnes'
p4692
aS'@cheatingdeam'
p4693
aS'@Lawrence'
p4694
aS'@yassinomar:'
p4695
aS'@bat211'
p4696
aS'@bingo1bingo2:'
p4697
aS'@ChesterfieldGOP'
p4698
aS'@high_altitude1'
p4699
aS'@ZacKing30:'
p4700
aS'@johnrich,'
p4701
aS'@dfberger23:'
p4702
aS'@Lg4Lg'
p4703
aS'@AllysonWardBrkr:'
p4704
aS'@DeasWorld:'
p4705
aS'@mattginellagc:'
p4706
aS'@stuartpstevens'
p4707
aS'@AmbeyLambey:'
p4708
aS'@lancearmstrong,'
p4709
aS"@TrumpCollection's"
p4710
aS'@marklevinshow'
p4711
aS'@BBCNews:'
p4712
aS'@dannyzucker'
p4713
aS"@BBCNews'"
p4714
aS'@PatrickWeeks'
p4715
aS'@Chris_Nima:'
p4716
aS'@sparklebutt1947:'
p4717
aS"@kimguilfoyle's"
p4718
aS'@sayhigreg'
p4719
aS'@bpolitics:'
p4720
aS'@TVAshleigh'
p4721
aS'@bguzqueda:'
p4722
aS'@amowjf:'
p4723
aS'@bdeal10:'
p4724
aS'@ebayluckyterror:'
p4725
aS'@NicolletteSheridan'
p4726
aS'@mappleby747:'
p4727
aS'@GZervs:'
p4728
aS'@HouseDealsNow'
p4729
aS'@lisalampanelli,'
p4730
aS'@BillRancic'
p4731
aS'@TrumpTowerNY!"'
p4732
aS'@MartinFagervik'
p4733
aS'@ArtistdeeDd'
p4734
aS'@EWErickson:'
p4735
aS'@brad4634'
p4736
aS'@FashionistaBtch:'
p4737
aS'@MrBrandonCraker:'
p4738
aS'@sbowlin1'
p4739
aS'@Maxinerunner'
p4740
aS'@wsaleen'
p4741
aS'@RobertW33157775'
p4742
aS'@Mattotomato:'
p4743
aS'@SandeepSrih'
p4744
aS'@PennJillette'
p4745
aS'@PureBeautyTO:'
p4746
aS'@netflix.'
p4747
aS'@PatrickStinard:'
p4748
aS'@ericjedelstein:'
p4749
aS'@chaz_323:'
p4750
aS'@SamRator:'
p4751
aS'@Paula_White'
p4752
aS'@JoyVBehar'
p4753
aS'@Lakers'
p4754
aS'@ChadWeiske:'
p4755
aS'@GSMgolf'
p4756
aS'@general_lauri:'
p4757
aS'@Elgianne'
p4758
aS'@IcyJordan:'
p4759
aS'@CrystalPrebola'
p4760
aS'@tharris012:'
p4761
aS'@ThisWeekABC!'
p4762
aS'@tonystang'
p4763
aS'@realDonaldTrump!!"'
p4764
aS'@ThisWeekABC.'
p4765
aS'@wisdomforwomen:'
p4766
aS'@Matteo5anchez'
p4767
aS'@STshizzle:'
p4768
aS'@JoeLouisErina:'
p4769
aS'@Jeep'
p4770
aS'@Fartlesburg:'
p4771
aS'@elizabethtrivis:'
p4772
aS'@glenda_goff'
p4773
aS'@ruralbeeffarmer'
p4774
aS"@RepJeffDuncan's"
p4775
aS'@JenCromartie'
p4776
aS'@David_Cameron'
p4777
aS'@brady2edelman:'
p4778
aS'@bahia6085'
p4779
aS'@jakecbaum:'
p4780
aS'@KatrinoTrinko'
p4781
aS'@JOELMENTUM:'
p4782
aS'@garthdahdah:'
p4783
aS'@jaazee1:'
p4784
aS'@KCHA'
p4785
aS'@BillyHallowell'
p4786
aS'@BarryBnice'
p4787
aS'@Caraskc:'
p4788
aS'@LeChrisPace'
p4789
aS'@jsimonwc:'
p4790
aS'@sashamajerovsky'
p4791
aS"@traceadkins'"
p4792
aS'@traceadkins.'
p4793
aS'@HoustonWelder:'
p4794
aS'@WTA'
p4795
aS'@paramuspost:'
p4796
aS'@lovemyklr:'
p4797
aS'@atillatherover:'
p4798
aS'@CBSNews"'
p4799
aS'@Jaybaby63'
p4800
aS'@Mets.'
p4801
aS'@psu_rebot:'
p4802
aS'@LenToddWOR'
p4803
aS'@TeresaWageman:'
p4804
aS'@RevRome83'
p4805
aS'@thermoclinee'
p4806
aS'@TheBrianMo:'
p4807
aS'@LGlick1:'
p4808
aS'@cole_rapp:'
p4809
aS"@realDonaldTrump's!"
p4810
aS'@IrishCentral'
p4811
aS'@bburke0920:'
p4812
aS'@ChefLents'
p4813
aS'@MikeAmbo5:'
p4814
aS'@CBauer71:'
p4815
aS'@blissfuldestiny:'
p4816
aS'@tshakro:'
p4817
aS'@VancouverSun'
p4818
aS'@BylineAndyDavis:'
p4819
aS'@Broncos'
p4820
aS'@dannyzuck'
p4821
aS'@alphainparis:'
p4822
aS'@TVmaryd:'
p4823
aS'@BarackObama--the'
p4824
aS'@DLDizel:'
p4825
aS'@jjlyons_:'
p4826
aS'@BillDMeyer1971:'
p4827
aS'@judiejudyjudy:'
p4828
aS'@Waldrop15w:'
p4829
aS'@jake_grimes'
p4830
aS'@LUSHPILLAI'
p4831
aS'@stargazer3141:'
p4832
aS'@foolishvessel'
p4833
aS'@BradSaidWhat:'
p4834
aS'@twitter.'
p4835
aS'@LooneyTunes002:'
p4836
aS'@johnboehner'
p4837
aS'@TweetingAutism'
p4838
aS'@doralresort:'
p4839
aS'@kristinaoakes'
p4840
aS'@CROMO__:'
p4841
aS'@impetrio1'
p4842
aS'@AWRHawkins:'
p4843
aS'@ParadeMagazine:'
p4844
aS'@MorningsideEdu'
p4845
aS'@BrittainShannon:'
p4846
aS'@AyrshireChamber'
p4847
aS'@harvey_handy:'
p4848
aS'@wisegirlsrule:'
p4849
aS'@jpowell1973:'
p4850
aS'@kleckhardt'
p4851
aS'@Suntimes:'
p4852
aS'@PZoric:'
p4853
aS'@danrothweil'
p4854
aS'@Gol..."'
p4855
aS'@puppyslug:'
p4856
aS'@ChrisCuomo.'
p4857
aS'@hdfxdx01:'
p4858
aS'@Dardonyc16'
p4859
aS'@ThislsAmazing:'
p4860
aS'@niicolette_xo:'
p4861
aS'@GeneralTso316'
p4862
aS'@JoshBraaten'
p4863
aS'@livin_in_80s:'
p4864
aS'@YouAreNotDeep:'
p4865
aS'@BobAlonso:'
p4866
aS'@Trainor_Chris:'
p4867
aS'@bgholms'
p4868
aS'@Adidas'
p4869
aS'@stevenowell:'
p4870
aS'@BBCNorthEast:'
p4871
aS'@ritter1025'
p4872
aS'@klo211'
p4873
aS'@ZephyrusMatrix:'
p4874
aS'@rayleebates:'
p4875
aS'@sad__mom:'
p4876
aS'@marklevinshow:'
p4877
aS'@FBIBoston'
p4878
aS'@SanQuint:'
p4879
aS'@NHGOP'
p4880
aS'@WWinmill:'
p4881
aS'@DoomsdayFAN:'
p4882
aS'@thatxystkid:'
p4883
aS'@WBINTV'
p4884
aS'@Jrich1830'
p4885
aS'@NeilECollins:'
p4886
aS'@NeanderthalMan1'
p4887
aS'@AndyPettitte"'
p4888
aS'@kimguilfoyle,'
p4889
aS'@tombrokow'
p4890
aS'@NYMag'
p4891
aS'@hdrenovate:'
p4892
aS'@SportsWalnuts'
p4893
aS'@MateoHielo'
p4894
aS'@phatpuppyart:'
p4895
aS'@JonathonTrugman:'
p4896
aS'@steinhauserNH1'
p4897
aS'@GusMan2013:'
p4898
aS'@jack_welch"'
p4899
aS'@TrumpTowerNY.'
p4900
aS'@tedageejr'
p4901
aS'@fastfranky5'
p4902
aS'@LordKaa213:'
p4903
aS'@TrumpTowerNY?'
p4904
aS'@Seanelmi'
p4905
aS'@marinedad20'
p4906
aS'@LKR_Fan24'
p4907
aS'@FilmBatonRouge'
p4908
aS'@rootmetrics'
p4909
aS'@dansalbreiter'
p4910
aS'@SwedeGee'
p4911
aS'@Karentalk:'
p4912
aS'@NicolleDWallace'
p4913
aS'@Politcswatch:'
p4914
aS'@adamscott'
p4915
aS'@psmith819:'
p4916
aS'@Josh_leonard99:'
p4917
aS'@IowaGOP'
p4918
aS'@bingato'
p4919
aS'@csrollyson:'
p4920
aS'@_tamx0:'
p4921
aS'@Devante4Liberty:'
p4922
aS'@L100RAN'
p4923
aS'@asiandave89'
p4924
aS'@jeff_coles'
p4925
aS'@Cristaly:'
p4926
aS'@Bamadad1985:'
p4927
aS'@TimTebow.'
p4928
aS'@AWoodyLou:'
p4929
aS'@tjstoudt'
p4930
aS'@sorensen_ao:'
p4931
aS'@libProject:'
p4932
aS'@thekerikgroup:'
p4933
aS'@realDonaldTrump..."'
p4934
aS'@ellemae63:'
p4935
aS'@MikeDGarrison:'
p4936
aS'@realDonaldTrump....'
p4937
aS'@CraveOnline:'
p4938
aS'@auramaria028:'
p4939
aS'@Jenn641'
p4940
aS'@rennie022164:'
p4941
aS'@borland_jim'
p4942
aS'@M_Foresta:'
p4943
aS'@Boarcane'
p4944
aS'@RickysPlace1:'
p4945
aS'@wendyb5372:'
p4946
aS'@ConcordNHPatch'
p4947
aS'@dbljjames'
p4948
aS'@JeffPetak:'
p4949
aS'@JonasBrothers'
p4950
aS'@SueJaneRoberts:'
p4951
aS'@HuffPostGreen'
p4952
aS'@TheImusShow'
p4953
aS'@AndyLeeTweets:'
p4954
aS'@JonathanHoenig'
p4955
aS'@MichaelPMulhall:'
p4956
aS'@IsraeliPM'
p4957
aS'@juicetucker.'
p4958
aS'@KingJames"'
p4959
aS'@fitsnews:'
p4960
aS'@RealPro4Real:'
p4961
aS'@Steve_DiMeglio'
p4962
aS'@_BOSS_TALK_'
p4963
aS'@Wasimperviz'
p4964
aS'@jzpi:'
p4965
aS'@TurnberryBuzz:'
p4966
aS'@RebeccaGBerg'
p4967
aS'@CATHCO9:'
p4968
aS'@MegynKelly'
p4969
aS'@oreillyfactor.'
p4970
aS'@TurnberryBuzz.'
p4971
aS'@oreillyfactor,'
p4972
aS'@aubreyoday'
p4973
aS'@katmur23:'
p4974
aS'@koznneffect:'
p4975
aS'@SteveCrisafulli'
p4976
aS"@BillyGraham's"
p4977
aS'@DonnieHoward2:'
p4978
aS'@pandoerra:'
p4979
aS'@realdonaldtrump'
p4980
aS'@cobra4748:'
p4981
aS'@kenbu1:'
p4982
aS'@bradhedlund'
p4983
aS'@fastercarrrrrrr:'
p4984
aS'@juicetucker:'
p4985
aS"@Newsmax_Media's"
p4986
aS'@GerriWillisFBN'
p4987
aS'@warnerthuston:'
p4988
aS'@jevonk:'
p4989
aS'@RangerLE901:'
p4990
aS'@CarrollGroupCHI'
p4991
aS'@donaldjtrumpjr'
p4992
aS'@Marta_AQT4U:'
p4993
aS'@rdbrewer4'
p4994
aS'@justinraay:'
p4995
aS'@SandraSmithFox'
p4996
aS'@macresslertech'
p4997
aS'@Trump_Ireland'
p4998
aS'@MalachiNorris:'
p4999
aS'@ppppolls'
p5000
aS'@FairTaxBill:'
p5001
aS'@cathmiriam:'
p5002
aS'@SethMacFarlane'
p5003
aS'@nbc--NBC'
p5004
aS'@sam_tucker17:'
p5005
aS'@BloombergNews'
p5006
aS'@Texxas_Gal'
p5007
aS'@Reveretoo:'
p5008
aS'@Grammy8:'
p5009
aS'@jerome_corsi:'
p5010
aS'@PassGoMonopoly'
p5011
aS'@bdckool:'
p5012
aS'@arabinkid88:'
p5013
aS'@itp_ab'
p5014
aS'@marita1j:'
p5015
aS'@joooooojaah:'
p5016
aS'@VeIvetRose'
p5017
aS'@me_lisa_m:'
p5018
aS'@Carrie_Wofford'
p5019
aS'@VisitAyrshire'
p5020
aS'@FaithandFreedom'
p5021
aS'@shoegoddesss:'
p5022
aS'@RoniSeale:'
p5023
aS'@Univision.'
p5024
aS'@TpGraf82:'
p5025
aS'@AOL,'
p5026
aS'@AOL.'
p5027
aS"@AmSpec's"
p5028
aS'@AberdeenCC'
p5029
aS'@realDBP'
p5030
aS'@RyDev22'
p5031
aS'@AndrewKirell:'
p5032
aS'@DesMoines"'
p5033
aS'@Teresa_Giudice'
p5034
aS'@biggovt:'
p5035
aS'@michaelmuraz:'
p5036
aS'@BarbaraJWalters.'
p5037
aS'@BarbaraJWalters,'
p5038
aS'@jcosmofisher:'
p5039
aS'@weeklystandard'
p5040
aS'@ckmagic32'
p5041
aS'@bjamin021:'
p5042
aS'@willowfrantn'
p5043
aS'@JohnMcCain'
p5044
aS'@EW"'
p5045
aS'@BillAndMoShow'
p5046
aS'@Al_Baldasaro'
p5047
aS'@PeteRose_14'
p5048
aS'@JamieeMingg:'
p5049
aS'@aa_newey'
p5050
aS'@RickyTheBitch'
p5051
aS'@AshleyTSidman:'
p5052
aS'@MurielleCera:'
p5053
aS'@therealbigdt'
p5054
aS'@WayneEtnyre'
p5055
aS'@murphy1849:'
p5056
aS'@scotgov:'
p5057
aS'@TyceDaggitt:'
p5058
aS'@jamesbregenzer:'
p5059
aS'@Barbavh:'
p5060
aS'@kylesmith300:'
p5061
aS'@jamie461:'
p5062
aS"@GolfweekMag's"
p5063
aS'@NYC'
p5064
aS'@mhelzer:'
p5065
aS'@ZGreekDWstyle:'
p5066
aS'@Ricky_Vaughn99:'
p5067
aS'@AustinMay'
p5068
aS'@shellipep'
p5069
aS'@d18mt2'
p5070
aS'@conedison,'
p5071
aS'@Danoh1952:'
p5072
aS'@CarlyFiorina'
p5073
aS'@shanebacon'
p5074
aS'@rozweston'
p5075
aS'@AFPhq'
p5076
aS'@tlwhitney1'
p5077
aS'@dwangpow'
p5078
aS'@MrsAliciaParks'
p5079
aS'@ultradave1951:'
p5080
aS'@bluestarwindow:'
p5081
aS'@foxandfriends:Trump'
p5082
aS'@Carney_go_time:'
p5083
aS'@malaanbee'
p5084
aS'@DailyCaller"'
p5085
aS'@DailyCaller:'
p5086
aS'@Team_Mitch'
p5087
aS'@BMckenna38:'
p5088
aS'@JamesOkeefeIII'
p5089
aS'@silvermarie2001:'
p5090
aS'@RichardWeaving:'
p5091
aS'@EWErickson'
p5092
aS'@paddyb_ireland'
p5093
aS'@LaraLeaYunaska'
p5094
aS'@IGotAngelEyes'
p5095
aS'@dalley5:'
p5096
aS'@BOARDRISKMAN'
p5097
aS'@TheMrBrownstone:'
p5098
aS'@billybush'
p5099
aS'@nowandthan'
p5100
aS'@MrGamecock1:'
p5101
aS'@DJHago:'
p5102
aS'@CMHollon:'
p5103
aS'@Joe1sPro:'
p5104
aS'@yagerblasters:'
p5105
aS'@mwgfdn:'
p5106
aS'@joelleangeli:'
p5107
aS'@davevin73'
p5108
aS'@RichRichie725:'
p5109
aS'@raybongz:'
p5110
aS'@paysbig'
p5111
aS'@melsthemom'
p5112
aS'@GovMikeHuckabee'
p5113
aS'@Cadillac'
p5114
aS'@pokeyisme1971:'
p5115
aS'@LionsTrinityCap:'
p5116
aS'@Toxmaster'
p5117
aS'@DScapusio:'
p5118
aS'@mnm769:'
p5119
aS'@cmull43:'
p5120
aS'@gjcream:'
p5121
aS'@HorneUltimatum'
p5122
aS'@paulscuz'
p5123
aS'@DBradleyRI'
p5124
aS'@scapesrus:'
p5125
aS'@Markyoungco'
p5126
aS'@JoeTran19:'
p5127
aS'@mec755:'
p5128
aS'@Shrubshrub:'
p5129
aS'@mvmoreno1961:'
p5130
aS'@GSGOV:'
p5131
aS'@IngrahamAngle:'
p5132
aS'@collinsworthsnf'
p5133
aS'@markhansen295:'
p5134
aS'@ChrisColgan:'
p5135
aS'@Pursuitist:'
p5136
aS'@russiannavyblog'
p5137
aS'@JGlennard:'
p5138
aS'@kerri59:'
p5139
aS'@miamarrazza'
p5140
aS'@Scottish'
p5141
aS'@TSRowan'
p5142
aS'@shepherd_connor'
p5143
aS'@FinestGolfHoles!'
p5144
aS'@DavidVitter'
p5145
aS'@IrishCigarGuy:'
p5146
aS'@bucwaas:'
p5147
aS'@FinestGolfHoles:'
p5148
aS'@NYCJennie'
p5149
aS'@AGSchneiderman.'
p5150
aS'@AGSchneiderman,'
p5151
aS'@adeezy101:'
p5152
aS'@michelleneuf:'
p5153
aS'@ThePatriot143:'
p5154
aS"@cheflents's"
p5155
aS'@naughtoriousBIG'
p5156
aS'@nhiop.'
p5157
aS'@JaneyGodley'
p5158
aS'@tomhovland1:'
p5159
aS'@pjpaton:'
p5160
aS'@Ajb073'
p5161
aS'@KEEMSTARx:'
p5162
aS'@GiovaChris:'
p5163
aS'@CarrGaz:'
p5164
aS'@kyleraccio:'
p5165
aS'@JDrago28:'
p5166
aS'@BENJAMINPRICE18'
p5167
aS'@notleadinglady:'
p5168
aS'@Call4'
p5169
aS'@foxrocks2012:'
p5170
aS'@mariamenounos'
p5171
aS'@project_veritas'
p5172
aS'@EmilyMiller,'
p5173
aS'@realDonaldTrump'
p5174
aS'@WKDojo:'
p5175
aS'@AGSchneiderman--just'
p5176
aS'@thomtillis'
p5177
aS'@EmilyMiller:'
p5178
aS'@SquawkBox,'
p5179
aS'@KAWSTEEL:'
p5180
aS'@emilyhoms:'
p5181
aS'@greigaspinall'
p5182
aS'@10AJMcCarron'
p5183
aS'@scottygam:'
p5184
aS'@StephMcMahon'
p5185
aS'@julibanko:'
p5186
aS'@GolfMatchApp:'
p5187
aS'@MikeSeemuth:'
p5188
aS'@littlevd2'
p5189
aS'@NASCAR_FDN.'
p5190
aS'@bloopcrew:'
p5191
aS'@HeelsofsteelAH:'
p5192
aS'@KonnieMac:'
p5193
aS'@betsyscribeindc:'
p5194
aS'@1JeffHensley:'
p5195
aS'@G_Liberty_Voice'
p5196
aS'@WIBWAriana'
p5197
aS'@vnessa09:'
p5198
aS'@Lumberportal:'
p5199
aS'@ChevallierRC:'
p5200
aS'@ChrisRuddyNMX:'
p5201
aS'@Budd0427'
p5202
aS'@Tyler_TuscChevy'
p5203
aS'@RichardIrace'
p5204
aS'@JamesKlatt:'
p5205
aS'@MatthewSmales1'
p5206
aS'@CondeNastCorp,'
p5207
aS'@Flash1love'
p5208
aS'@bodysouls'
p5209
aS'@JustinRose99:'
p5210
aS'@TrumpLasVegas'
p5211
aS'@melaniatrump!"'
p5212
aS'@donhewitt3'
p5213
aS'@paulwesley'
p5214
aS'@ColeHudson68:'
p5215
aS'@LMowle:'
p5216
aS'@gochico:'
p5217
aS'@Ghetto_Trophy:'
p5218
aS'@darjar14:'
p5219
aS'@SteveRickettsSP'
p5220
aS'@brooklynnets'
p5221
aS'@History'
p5222
aS'@BattleFace2Face:'
p5223
aS'@RamsayGolf:'
p5224
aS'@mr_al_131:'
p5225
aS'@MEGUNYC'
p5226
aS'@BillOreilly'
p5227
aS'@JasonKoster17:'
p5228
aS'@Kathlee08380944:'
p5229
aS'@TheGrumpyHusky:'
p5230
aS'@KellyMorrisLtd'
p5231
aS'@MarcNECN:'
p5232
aS"@marcorubio's"
p5233
aS'@ikiibrahim:'
p5234
aS'@pruett_jason:'
p5235
aS'@NY_POLICE'
p5236
aS'@Luxur...'
p5237
aS'@MarianoRivera'
p5238
aS'@Deneetro'
p5239
aS'@Nospin_43:'
p5240
aS'@RColdwellBanker:'
p5241
aS'@GreaseWeezer'
p5242
aS'@stephenfhayes'
p5243
aS'@ShivrajGohil:'
p5244
aS'@RepWOLFPress'
p5245
aS'@AmeliaLanders_:'
p5246
aS'@thechrismcqueen'
p5247
aS'@erikwill:'
p5248
aS'@hitillidie:'
p5249
aS'@Chase_Combs4:'
p5250
aS'@pedal_real_fast'
p5251
aS'@tuohy"'
p5252
aS'@tuohy:'
p5253
aS'@carlideibel7'
p5254
aS'@Peace_Janise.'
p5255
aS'@PaleoBuilder:'
p5256
aS'@ClareTourism'
p5257
aS'@GovernorGilmore'
p5258
aS'@AmandaTMiller'
p5259
aS'@KanStalwart3'
p5260
aS'@mathewaiken'
p5261
aS'@devobrown'
p5262
aS'@BigBro14'
p5263
aS'@rdowns'
p5264
aS'@jack_welch'
p5265
aS'@_KatherineWebb:'
p5266
aS'@VetApologist'
p5267
aS'@bobbymayojr:'
p5268
aS'@FairwaysFundays:'
p5269
aS'@scorpio_man1973:'
p5270
aS'@keichri'
p5271
aS'@travis_temple:'
p5272
aS'@sarah_e_smith9'
p5273
aS'@SternShow.'
p5274
aS'@joannepascal:'
p5275
aS'@DanRebellato:'
p5276
aS'@paranormalfact:'
p5277
aS'@garyplayer'
p5278
aS'@StevanScheer:'
p5279
aS'@nitya_lal:'
p5280
aS'@dnewman83'
p5281
aS'@lisagoetz'
p5282
aS'@kerps80'
p5283
aS'@sagethelaxbro'
p5284
aS"@SenJohnMcCain--it's"
p5285
aS'@TrumpGolfLA'
p5286
aS'@Stelmo757:'
p5287
aS'@carson_evans1:'
p5288
aS'@showtimeshelby'
p5289
aS'@mjb7:'
p5290
aS'@Lowery01:'
p5291
aS'@jrkirk22'
p5292
aS'@ladygaga'
p5293
aS'@alroker'
p5294
aS'@MicheleBachmann'
p5295
aS'@thedailyshow'
p5296
aS'@hennikerbrewing:'
p5297
aS'@Nautilus916'
p5298
aS'@MikeFMacleod77'
p5299
aS'@PiersMorgan'
p5300
aS'@mark_sanchez'
p5301
aS'@joelpollak'
p5302
aS'@TheRealMarilu,'
p5303
aS'@ssalame11:'
p5304
aS'@IngrahamAngle'
p5305
aS'@wrightmomof3'
p5306
aS'@BeauStack'
p5307
aS'@DylMyr'
p5308
aS'@LianneOnLife'
p5309
aS'@AndyWHumphreys'
p5310
aS'@WheresJose:'
p5311
aS'@_lizzly'
p5312
aS'@wolfblitzercnn'
p5313
aS'@gatewaypundit:'
p5314
aS'@Aperanio827:'
p5315
aS'@SenTedCruz'
p5316
aS'@GappistanRadio:'
p5317
aS'@TheView.'
p5318
aS'@DNorrell:'
p5319
aS'@KhloeKardashian,'
p5320
aS'@BelmontUniv'
p5321
aS'@AP..."'
p5322
aS'@duncanrj1969'
p5323
aS'@DannyZucker'
p5324
aS'@Telemundo.'
p5325
aS'@luke_mcgrath:'
p5326
aS'@cotyybaby:'
p5327
aS'@lisa6654'
p5328
aS'@billpostmus'
p5329
aS'@OConnellPostbiz'
p5330
aS'@IndyBuffaloJim'
p5331
aS'@mckaycoppins'
p5332
aS'@BILLIONIRV.'
p5333
aS'@sparkey03:'
p5334
aS'@DuaneMcAnally'
p5335
aS'@mcuban'
p5336
aS'@kazmat67'
p5337
aS'@chris_l54:'
p5338
aS'@HauteLivingMag'
p5339
aS'@clarechampion'
p5340
aS'@amybdt:'
p5341
aS'@rosannascotto:'
p5342
aS'@marc_soler1'
p5343
aS'@JimmyHanlin:'
p5344
aS'@rushlimbaugh'
p5345
aS'@liljon,'
p5346
aS'@JPM17:'
p5347
aS'@AndrewZufel'
p5348
aS'@amarudacosta:'
p5349
aS'@NicolasFJE'
p5350
aS'@TODAY_Clicker:'
p5351
aS'@LydiaNeu:'
p5352
aS'@autism'
p5353
aS'@aakash4cesc:'
p5354
aS'@Travianno'
p5355
aS'@Gretawire'
p5356
aS'@316Place'
p5357
aS'@DoryaInteriors'
p5358
aS'@dp1489:'
p5359
aS'@RyanSeanHeron'
p5360
aS'@WasimPerviz:'
p5361
aS'@ChicagoMag'
p5362
aS'@kostoff2:'
p5363
aS'@InverurieHerald:'
p5364
aS'@DanteDMoney:'
p5365
aS'@MyIntersperse:'
p5366
aS'@MeganAlexander1:'
p5367
aS'@puffy61'
p5368
aS'@ColinSWood'
p5369
aS'@BowlingMatthew:'
p5370
aS'@llambert0207'
p5371
aS'@ASwoyer:'
p5372
aS'@HuffingtonPost.'
p5373
aS'@King_Pepp'
p5374
aS'@TheguhMantap:'
p5375
aS'@laura_winkker:'
p5376
aS'@JimmyDeVito'
p5377
aS'@DMRegister:'
p5378
aS'@politico'
p5379
aS'@gabriellebragg4:'
p5380
aS'@208Rocky:'
p5381
aS'@DMRegister.'
p5382
aS'@jem72133:'
p5383
aS'@The_RHLP:'
p5384
aS'@_BOSS_TALK_:'
p5385
aS'@walleyefever:'
p5386
aS'@not_that_actor:'
p5387
aS'@KcLivegreen:'
p5388
aS"@AndrewBreitbart's"
p5389
aS'@GodFatha702'
p5390
aS'@phagan2:'
p5391
aS'@Frostpga'
p5392
aS'@andrewjoblon'
p5393
aS'@rosie'
p5394
aS'@wlsam890'
p5395
aS'@joeypiazza'
p5396
aS'@TonyDABodyguard'
p5397
aS'@Chicago_History:'
p5398
aS'@injebbin:'
p5399
aS'@TimNaples:'
p5400
aS'@handyrachet'
p5401
aS'@amsardina:'
p5402
aS'@AskMrWhitey:'
p5403
aS'@pam_rugani:'
p5404
aS'@THETAINTEDT:'
p5405
aS'@MonergyTheBook'
p5406
aS'@LadyPatriot777'
p5407
aS'@jijassim:'
p5408
aS'@Brn2ShpFrcd2Wrk:'
p5409
aS'@jamesmason1:'
p5410
aS'@Steal70:'
p5411
aS'@BethAndersonEsq:'
p5412
aS'@HammerleAmanda'
p5413
aS'@TrumpRink:'
p5414
aS'@TrumpGolfLA.'
p5415
aS'@Aa94Javy'
p5416
aS'@michael_mkw10:'
p5417
aS'@Alex_Boxwell:'
p5418
aS'@wwe'
p5419
aS'@TrumpGolfLA:'
p5420
aS'@econcrash:'
p5421
aS'@mikeyv24:'
p5422
aS'@IowaGOPer'
p5423
aS'@Verizon'
p5424
aS'@gatewaypundit'
p5425
aS'@Lennydrew'
p5426
aS'@USATODAYsports:'
p5427
aS'@MarioFMartinezz:'
p5428
aS'@rightjj;:'
p5429
aS'@slucch24:'
p5430
aS'@ASenaPhotograph:'
p5431
aS'@P4tR10tBoo'
p5432
aS'@utkarsh_chheda:'
p5433
aS'@Greek1958:'
p5434
aS'@EastonWestwood:'
p5435
aS'@TrumpTurnberry.'
p5436
aS'@nickwoodhouse:'
p5437
aS'@ThugEFresh'
p5438
aS'@Tudowz'
p5439
aS'@twendencyUSA:'
p5440
aS'@mendelsohn41:'
p5441
aS'@stac:'
p5442
aS'@JerseyShoeLace:'
p5443
aS"@ArsenioOFFICIAL's"
p5444
aS'@therealHamzeh:'
p5445
aS'@_Sierra03_:'
p5446
aS'@HollywoodLife'
p5447
aS'@staceymAPPEAL'
p5448
aS'@Espngreeny:'
p5449
aS'@wrhitchcock'
p5450
aS'@champforr'
p5451
aS'@tubby511'
p5452
aS'@nathanfuchs'
p5453
aS'@RickSantorum,'
p5454
aS'@pmadden86'
p5455
aS'@RealMicihaelKay.'
p5456
aS"@America'sGotTalent."
p5457
aS'@alweaver22:Trump:'
p5458
aS'@TroyMoe1:'
p5459
aS'@TDarbyMitchell:'
p5460
aS'@LuxetteHotels:'
p5461
aS'@thejbrain:'
p5462
aS'@KeithJMcConnell'
p5463
aS'@califortrump'
p5464
aS'@PHLBaseballNsdr:'
p5465
aS'@ConroeCourier'
p5466
aS"@RepPaulRyan's"
p5467
aS'@DannyMartin2002'
p5468
aS'@mauigirl56'
p5469
aS'@johnmorrow821:'
p5470
aS'@Chowes247'
p5471
aS'@BillyCrystal'
p5472
aS'@jojo81466:'
p5473
aS'@seajay2uk:'
p5474
aS'@MissUSA'
p5475
aS'@burkejack:'
p5476
aS'@pennjillette'
p5477
aS'@jayneg53:'
p5478
aS'@Pertinax193:'
p5479
aS'@Timc1021'
p5480
aS'@AmandaTMiller-'
p5481
aS'@chrisinspfld'
p5482
aS'@BigPoppa181'
p5483
aS'@CelebIntelUSA:'
p5484
aS'@allen1006:'
p5485
aS'@LilJon'
p5486
aS'@dave_twit29'
p5487
aS'@CunninghamNY:'
p5488
aS'@purpleheartwife:'
p5489
aS'@vilmawolfe03'
p5490
aS'@DanScavino:'
p5491
aS'@woodrowwinters'
p5492
aS'@G_Harwood'
p5493
aS'@EldyCorrea:'
p5494
aS'@hasantaleb:'
p5495
aS'@kpdelbridge:'
p5496
aS'@RBrownFSU:'
p5497
aS'@andzi11'
p5498
aS'@hockey_brenna13:'
p5499
aS'@bnbooks.'
p5500
aS'@CarrGolfTravel:'
p5501
aS'@VerizonWireless'
p5502
aS'@ctobin22:'
p5503
aS'@oparinde'
p5504
aS'@ClayWPLG:'
p5505
aS'@ArsenioHall'
p5506
aS'@CBSMiami'
p5507
aS'@BROWNGNG:'
p5508
aS'@DonnySavaged:'
p5509
aS'@bushpiggy:'
p5510
aS'@QueyNewton'
p5511
aS'@dtbeasley:'
p5512
aS'@jack_perry1992:'
p5513
aS'@Poppawub'
p5514
aS'@pzharris:'
p5515
aS'@Smurrrph:'
p5516
aS'@LaurenHayes021:'
p5517
aS'@JEDTHEFISH7'
p5518
aS'@mjohnstonxoxo'
p5519
aS'@Doanertouque:'
p5520
aS'@jackson3pack:'
p5521
aS'@firdousalidr:'
p5522
aS'@bkatrek'
p5523
aS'@clayaiken.'
p5524
aS'@devanalexisb'
p5525
aS'@erictrump'
p5526
aS'@AmberLay2013'
p5527
aS'@clayaiken:'
p5528
aS'@luxuryscotland:'
p5529
aS'@clayaiken?'
p5530
aS'@timesunion.com'
p5531
aS'@bzocash:'
p5532
aS'@johnbravo_1:'
p5533
aS'@PodcastOne'
p5534
aS'@IsaacNewYorker:'
p5535
aS'@TeaPartyThad'
p5536
aS'@LittleJoesHeart'
p5537
aS'@Suzmo816:'
p5538
aS'@PGHCEO:'
p5539
aS'@squirtlong:'
p5540
aS'@GiamattiJenna:'
p5541
aS'@consmover'
p5542
aS'@Chris_R_2014:'
p5543
aS'@Salon'
p5544
aS'@PennState'
p5545
aS'@Gawker'
p5546
aS'@lexiflake:'
p5547
aS'@GarettWadekempe:'
p5548
aS'@JPJAC:'
p5549
aS'@catisbetter666:'
p5550
aS'@MissyCombs38'
p5551
aS'@Vincent_Moretti'
p5552
aS'@snugglebun31:'
p5553
aS'@Deaf_Dwayne:'
p5554
aS'@Tea_Party_Chris:'
p5555
aS'@EricTrump:'
p5556
aS'@bhughes657:'
p5557
aS'@ArekRNBN'
p5558
aS'@bfc0312'
p5559
aS'@linablue:'
p5560
aS'@EricTrump!'
p5561
aS'@jmull71'
p5562
aS'@EricTrump,'
p5563
aS'@EricTrump-'
p5564
aS'@bdean1468'
p5565
aS'@TrumpSoHo:'
p5566
aS"@BetteMidler's"
p5567
aS'@osaFoLmiK'
p5568
aS'@SRQRepublicans.'
p5569
aS'@jakewittman'
p5570
aS'@mediaite,'
p5571
aS'@TrumpSoHo,'
p5572
aS'@TrumpSoHo.'
p5573
aS'@TheLanes08'
p5574
aS'@thatPRgrl:'
p5575
aS'@mediaite"'
p5576
aS'@4kmiddlebrook'
p5577
aS'@PattyOchs:'
p5578
aS'@BrianSpurr'
p5579
aS'@BrettNPU32'
p5580
aS'@JoeQuinn6:'
p5581
aS'@WarrenBuffett'
p5582
aS'@dutchfreightman:'
p5583
aS'@DanielRobinsMD.'
p5584
aS'@DylanHEndlich'
p5585
aS'@TrumpGolfLA@Daniel_Logan'
p5586
aS'@joelalbright1.'
p5587
aS'@ukn96'
p5588
aS'@timallensblues'
p5589
aS'@LightmanDavid'
p5590
aS'@KathieLGifford.'
p5591
aS'@WGC_MatchPlay!'
p5592
aS'@EvaLongoria.'
p5593
aS'@dmxxx_:'
p5594
aS'@jj10471'
p5595
aS'@WendyWilliams'
p5596
aS'@tomspiglanin'
p5597
aS'@ANNIKA59'
p5598
aS'@glock34girl:'
p5599
aS'@anthonyskwiat:'
p5600
aS'@realDonald...'
p5601
aS'@TVreporter:'
p5602
aS'@bobmcdonnell'
p5603
aS'@Domenclature:'
p5604
aS'@RealJonJenkins:'
p5605
aS'@arsenioofficial.'
p5606
aS'@ChrisHarmsWI'
p5607
aS'@dubaiexpo2020'
p5608
aS'@SeaBeeVietN:'
p5609
aS'@DoroMundo'
p5610
aS'@dateline_keith.'
p5611
aS'@catmos0:'
p5612
aS'@lovemyklr'
p5613
aS'@koos32:'
p5614
aS'@Awew:'
p5615
aS'@kabarzombie69'
p5616
aS'@SnarfGuard:'
p5617
aS'@charmed112586:'
p5618
aS'@FrankLuntz:'
p5619
aS'@mmanut'
p5620
aS'@PinehurstResort.'
p5621
aS'@drewbrees'
p5622
aS'@mattseba:'
p5623
aS'@scotsmandotcom:'
p5624
aS"@TrumpTowerNY's"
p5625
aS'@bdean1468:'
p5626
aS'@msmarjc'
p5627
aS'@Will1957:'
p5628
aS'@SO0ver:'
p5629
aS'@heavensbug'
p5630
aS'@2014_vince'
p5631
aS'@reidepstein:'
p5632
aS'@SuzanneDelawar:'
p5633
aS'@OBrienMurray'
p5634
aS'@johnnyb23390:'
p5635
aS'@gqforbes:'
p5636
aS'@SpecialReport'
p5637
aS'@bforrealstevens'
p5638
aS'@christinefox02'
p5639
aS'@RexHuppke:'
p5640
aS'@JordanSpieth'
p5641
aS'@bollweevil51:'
p5642
aS'@John832TheTruth:'
p5643
aS'@cbmcq'
p5644
aS'@nikki_daniels18:'
p5645
aS'@michaeljohns'
p5646
aS'@persdevquotes:'
p5647
aS'@GolfScoringGirl:'
p5648
aS'@anthonycl:'
p5649
aS'@naunie_b'
p5650
aS'@rushlimbaugh:'
p5651
aS'@MichaelPampena:'
p5652
aS'@KarlLewis01'
p5653
aS'@YoungSinatra:'
p5654
aS'@xfile1986:'
p5655
aS'@BeaumontAnthony:'
p5656
aS'@MJJustus1'
p5657
aS'@CahlRStorrie'
p5658
aS'@trumpgolf'
p5659
aS'@alohadownunder:'
p5660
aS'@Corene7'
p5661
aS'@HilaryClinton'
p5662
aS'@boonepickens"'
p5663
aS'@Warrior_Dave:'
p5664
aS'@WSGW'
p5665
aS'@KCRG'
p5666
aS'@BrentBozell'
p5667
aS'@MikeFMacleod77:'
p5668
aS'@madccat1:'
p5669
aS'@Ethan738:'
p5670
aS'@RaleighReporter'
p5671
aS'@lkoja:'
p5672
aS'@sellinghomes123:'
p5673
aS"@DylanByers'"
p5674
aS'@BiancaT37180567:'
p5675
aS'@cspan:'
p5676
aS'@CNBCnow:'
p5677
aS'@macy'
p5678
aS'@agoodeye:'
p5679
aS'@FrankLuntz'
p5680
aS'@kcef35:'
p5681
aS'@webster07'
p5682
aS'@NdichuJames'
p5683
aS'@teamreiss8'
p5684
aS'@stephenbaldwin'
p5685
aS'@josegonzalez_69:'
p5686
aS'@richardson1232:'
p5687
aS'@amir_ibrahim26:'
p5688
aS'@kpmck63'
p5689
aS'@LukewSavage'
p5690
aS'@nfl@nflcommish'
p5691
aS'@AndyBran'
p5692
aS'@kda20151223:'
p5693
aS'@LessGovMoreFun'
p5694
aS'@CUREHDSAORG:'
p5695
aS'@NewYorkGOP'
p5696
aS'@rtwing1020'
p5697
aS'@about_life:'
p5698
aS'@BunkeredOnline:Here'
p5699
aS'@PatrickMcMullan:'
p5700
aS'@tr123xyz:'
p5701
aS'@HouseofHerrera'
p5702
aS'@GeorgePTransue'
p5703
aS'@tspohn:'
p5704
aS'@rollingstone'
p5705
aS'@Sarah_Santorum'
p5706
aS'@SHAWSHANK5'
p5707
aS'@EdandBev'
p5708
aS'@AOL'
p5709
aS'@RickShauntz:'
p5710
aS'@derbitteractor:'
p5711
aS'@lion000:'
p5712
aS'@Cokokkola:'
p5713
aS'@mrmikeyharrison'
p5714
aS'@Mitestarossa'
p5715
aS'@bubbawatson'
p5716
aS'@dannydanon'
p5717
aS'@Shawn_Maynard'
p5718
aS'@robertore62:'
p5719
aS'@reexaminelife'
p5720
aS'@ChristianToday:'
p5721
aS'@CarterDeKeyser:'
p5722
aS'@datelinenbc.'
p5723
aS'@HolySelena:'
p5724
aS'@themightylayman:'
p5725
aS'@PeterThiele'
p5726
aS'@foxandfriends'
p5727
aS'@UsmanChodry:'
p5728
aS'@dineroworkceo:'
p5729
aS'@marleematlin'
p5730
aS'@RealMaky:'
p5731
aS'@adamwebb_uk'
p5732
aS'@jonathanchait.'
p5733
aS'@vinceconley:'
p5734
aS'@Bernard'
p5735
aS'@JoeTorre,'
p5736
aS'@krauthammer:'
p5737
aS'@jschmeezz23:'
p5738
aS'@gsspike:'
p5739
aS'@HMunjal:'
p5740
aS'@JoeTorre:'
p5741
aS'@usatoday'
p5742
aS'@LibertyUniversity--such'
p5743
aS'@halballew:'
p5744
aS'@GregAbbott_TX,'
p5745
aS'@PatrickD025:'
p5746
aS'@STR8HUSTLING:'
p5747
aS'@drfigliano:'
p5748
aS'@val_wonders'
p5749
aS'@FatmaEmadi'
p5750
aS'@RonKarkoviceFF'
p5751
aS'@joyvbehar'
p5752
aS'@joe4mayor2012:'
p5753
aS'@msaid10:'
p5754
aS'@RobbReport:'
p5755
aS'@FITNsummit'
p5756
aS'@kingmortimer'
p5757
aS'@PaulRyanVP,'
p5758
aS'@RobbReport,'
p5759
aS'@shelbytaylor3:'
p5760
aS'@DeViouSDoLL82'
p5761
aS'@WebbSimpson1'
p5762
aS'@JimKellyInc'
p5763
aS'@shannlyman:'
p5764
aS'@qctimes'
p5765
aS'@BLCKMSSH:'
p5766
aS'@bluegreentweet:'
p5767
aS'@McLeanGolf'
p5768
aS'@roparsons:'
p5769
aS'@MikeVega4:'
p5770
aS'@lmetzger3590'
p5771
aS'@BettyeBear:'
p5772
aS'@MarineCorpsLEF'
p5773
aS'@so_jason19:'
p5774
aS'@Nate_Cohn'
p5775
aS'@YMatthews956'
p5776
aS"@StephenBaldwin7's"
p5777
aS'@dennismurino:'
p5778
aS'@TomNocera'
p5779
aS'@michaltellos'
p5780
aS'@KNDetweiler:'
p5781
aS'@circa75sydney:'
p5782
aS'@trapasso2501'
p5783
aS'@jdelreal:'
p5784
aS'@theronnivp'
p5785
aS'@GGoodtaste:'
p5786
aS'@MaestroBeadles'
p5787
aS'@AngieBatlle'
p5788
aS'@andrewrsorkin'
p5789
aS'@ClayAiken-'
p5790
aS'@Cleggermeister'
p5791
aS'@SiegristA'
p5792
aS'@chiarchitecture'
p5793
aS'@SMK4ye'
p5794
aS'@SCJ'
p5795
aS'@CosmicShiftBar'
p5796
aS'@ThirdForceNews:'
p5797
aS'@BusinessDayNg:'
p5798
aS'@MrBC_3'
p5799
aS'@fundanything,'
p5800
aS'@instapundit'
p5801
aS'@facebook'
p5802
aS'@Cookies4kids.'
p5803
aS'@GOPthinker:'
p5804
aS'@DWStweets'
p5805
aS'@sfchronicle'
p5806
aS'@echump:'
p5807
aS'@ChrisLawGolf:'
p5808
aS'@Olivianuzzi:'
p5809
aS'@Ralphige:'
p5810
aS'@DavisCPAGroup:'
p5811
aS'@DanAmira'
p5812
aS'@MissUniversNEWS:'
p5813
aS'@taylorhayden7:'
p5814
aS'@DMRegister'
p5815
aS'@obadafidii:'
p5816
aS'@indigoblue65'
p5817
aS'@Queeniegotgame:'
p5818
aS'@derekwilkinson'
p5819
aS'@MaxChupailo:'
p5820
aS'@playazball:'
p5821
aS'@samahDanash:'
p5822
aS'@PressTV:'
p5823
aS'@MichaelEntrekin:'
p5824
aS'@NishantAgg23:'
p5825
aS'@LynchZC:'
p5826
aS'@ArtNGonzalez'
p5827
aS'@Judare'
p5828
aS'@bobbybnews:'
p5829
aS'@thatboyred:'
p5830
aS'@queenof72:'
p5831
aS'@seanhannity'
p5832
aS'@robertaritzen:'
p5833
aS'@Bugsyfire:'
p5834
aS'@SethBangert:'
p5835
aS'@CalebRapoport:'
p5836
aS'@KarlRove.'
p5837
aS'@KarlRove,'
p5838
aS'@GolfCarAnnie:'
p5839
aS'@TrumpVancouver:'
p5840
aS'@rattiackackack'
p5841
aS'@scottallenmeyer:'
p5842
aS'@dblsolo700'
p5843
aS'@Negroamigo11:'
p5844
aS'@MattJerichoY2J:'
p5845
aS'@bigjohnryan75:'
p5846
aS'@theBlaze'
p5847
aS'@HatchetWounds'
p5848
aS'@evneleven:'
p5849
aS'@TsatsaSepia:'
p5850
aS'@SvenIsaksson'
p5851
aS'@DuaneMcAnally:'
p5852
aS'@JasonBordui:'
p5853
aS'@SharonDepp:'
p5854
aS'@T_Sharp4:'
p5855
aS'@SherriEShepherd'
p5856
aS'@lynn_weiser:'
p5857
aS'@ChristianJosi:'
p5858
aS'@ClydeJayvy:'
p5859
aS'@TomPuiseux'
p5860
aS'@TrumpTO'
p5861
aS'@T_Sharp4!'
p5862
aS'@InTheElections:'
p5863
aS'@JayLefler:'
p5864
aS'@calisunandsurf:'
p5865
aS'@bclew70:'
p5866
aS'@nstegm:'
p5867
aS'@benrichlife'
p5868
aS'@GeoScarborough:'
p5869
aS'@ForAmerica'
p5870
aS'@foxesbA'
p5871
aS'@Daisygirl113:'
p5872
aS'@pcufinn:'
p5873
aS'@kilmeade'
p5874
aS'@carlideibel7:'
p5875
aS'@Jennifer75AR'
p5876
aS'@richardroeper'
p5877
aS'@AlexDub182821:'
p5878
aS'@NhoieGee'
p5879
aS'@Mike_Kelly1'
p5880
aS'@rjispy:'
p5881
aS'@TimothyRosinski:'
p5882
aS'@Mike12Currin:'
p5883
aS'@BreitbartNews'
p5884
aS'@ptarkkonen:'
p5885
aS'@WORLD_KIDS:'
p5886
aS'@rantanrave'
p5887
aS'@Real_LukasHall'
p5888
aS'@ErinSiegal'
p5889
aS'@Tumi_Architect:'
p5890
aS'@cliffwf:'
p5891
aS'@OMAROSA'
p5892
aS'@colvinj:'
p5893
aS'@S."'
p5894
aS'@Sweettea2u'
p5895
aS'@EmilyMiller'
p5896
aS'@tonyge0101'
p5897
aS'@NJcomsomerset'
p5898
aS'@CahlRStorrie:'
p5899
aS'@mtneerjustice'
p5900
aS'@SamDoyle12:'
p5901
aS'@_WatchMyProcess:'
p5902
aS'@cvpayne'
p5903
aS'@StevePike9'
p5904
aS'@MuhammadAli'
p5905
aS'@mayrazayago'
p5906
aS'@BilldaBeastII'
p5907
aS'@CPACnews'
p5908
aS'@greggutfeld'
p5909
aS'@zpolitics:'
p5910
aS'@JohnMKelly1:'
p5911
aS'@Chrysler'
p5912
aS'@PGATour'
p5913
aS'@jessicarnewman:'
p5914
aS'@jaynielea'
p5915
aS'@jaypeemoney'
p5916
aS'@dbongino'
p5917
aS'@courtneyymorgan:'
p5918
aS'@jjprl'
p5919
aS'@HardcoreRepub:'
p5920
aS'@NYCJennie:'
p5921
aS'@StaceyHunter10:'
p5922
aS'@GarethBale22:'
p5923
aS'@BruceBeck4NY'
p5924
aS'@ChrisCassidy_BH:'
p5925
aS'@persvanstrom'
p5926
aS'@11sheila11'
p5927
aS'@Late_Show...'
p5928
aS'@RahmEmanuel'
p5929
aS'@Trutt78:'
p5930
aS'@mindgone222:'
p5931
aS'@daveweigel:'
p5932
aS'@realDonaldTrump:'
p5933
aS'@JakeKonczyk:'
p5934
aS'@sundayhorse:'
p5935
aS'@kelsey_2155:'
p5936
aS'@realDonaldTrump"'
p5937
aS'@realDonaldTrump-'
p5938
aS'@realDonaldTrump,'
p5939
aS'@realDonaldTrump.'
p5940
aS'@gdelag:'
p5941
aS'@jmackd10'
p5942
aS'@traapgawddd:'
p5943
aS'@TishMurray:'
p5944
aS'@borland_jim:'
p5945
aS'@BaitedTrap:'
p5946
aS'@thedailybeast'
p5947
aS'@trumpntldc'
p5948
aS'@JoeSquawk'
p5949
aS'@blakemharris'
p5950
aS'@LodgeatDoonbeg:'
p5951
aS'@billyharry1:'
p5952
aS"@MikeTyson's"
p5953
aS'@_Hub__:'
p5954
aS"@washingtonpost's"
p5955
aS'@michell33841372:'
p5956
aS'@sethmeyers'
p5957
aS'@JasonDolan'
p5958
aS'@islandbluenose'
p5959
aS'@happyloner'
p5960
aS'@DrewPalmquist:'
p5961
aS'@LodgeatDoonbeg"'
p5962
aS"@BreitbartNews'"
p5963
aS'@MaxKnoblauch:'
p5964
aS'@JohnDuthie1'
p5965
aS'@BreitbartNews-'
p5966
aS'@CougarTrace:'
p5967
aS'@Delna_42:'
p5968
aS'@JayRobby:'
p5969
aS'@GlobalGolfPost'
p5970
aS'@woofeous'
p5971
aS'@zdavis14:'
p5972
aS'@matthewsloop:'
p5973
aS'@yo_rocky'
p5974
aS'@kenzoeblair:'
p5975
aS'@Jixllr'
p5976
aS'@Retume:'
p5977
aS'@JacobsenSusan:'
p5978
aS'@NYDailyNews.'
p5979
aS'@JaclynCashman"'
p5980
aS'@BooBooBear4U2:'
p5981
aS'@RockinJoe1:'
p5982
aS'@michaltellos:'
p5983
aS'@FoxNewsInsider:'
p5984
aS'@RamKindaGuy:'
p5985
aS'@hufseyg:'
p5986
aS'@elkaneh:'
p5987
aS'@Richard_Meier'
p5988
aS'@HelpUServe:'
p5989
aS'@Michele_WV:'
p5990
aS'@best_Is_me:'
p5991
aS'@masov40'
p5992
aS'@WreckThisPro:'
p5993
aS'@rea..."'
p5994
aS'@sallyvp:'
p5995
aS'@VolyoumTWEETS:'
p5996
aS'@bigg_ritch:'
p5997
aS'@RedAlert:'
p5998
aS'@wsj'
p5999
aS'@inventorspot'
p6000
aS'@Phyneguy2013:'
p6001
aS'@scpolitico:'
p6002
aS'@chadasletten'
p6003
aS'@dawson_Stock:'
p6004
aS'@RoddyDunn'
p6005
aS'@FOX'
p6006
aS'@tranerofmonstrs:'
p6007
aS'@KrissySummers88:'
p6008
aS'@RaleighReporter:'
p6009
aS'@MrCurvyWor'
p6010
aS'@DannyDanon'
p6011
aS'@rgb0y:'
p6012
aS'@uconncrazy'
p6013
aS'@ArabianBusiness:'
p6014
aS'@JohnA553:'
p6015
aS'@leebandoni'
p6016
aS'@blackpoolsinger'
p6017
aS'@RealMissPAUSA'
p6018
aS'@thejbrain'
p6019
aS'@LauraMontaguxox:'
p6020
aS'@iPlanned:'
p6021
aS'@Whitejl0111:'
p6022
aS'@HRdiva_NY'
p6023
aS'@jdstravel'
p6024
aS'@Chris_DiRe:'
p6025
aS'@sroyboyk'
p6026
aS'@CheezitsCat:'
p6027
aS'@1italianheart:'
p6028
aS'@GabiRyan1990'
p6029
aS'@BNDarticles:'
p6030
aS'@DanAmira,'
p6031
aS'@mikeohio2323:'
p6032
aS'@raffie100'
p6033
aS'@ConnieHegel'
p6034
aS'@donniewilmoth:'
p6035
aS'@AilsaCraigrock'
p6036
aS'@the_Larkinater:'
p6037
aS'@larkin_dotty:'
p6038
aS'@johnedwards'
p6039
aS'@joshduhamel'
p6040
aS'@ASanders836:'
p6041
aS'@77WABCradio'
p6042
aS'@philzentz'
p6043
aS'@ksorbs'
p6044
aS'@aboutdotcom'
p6045
aS'@jennypowers37:'
p6046
aS"@Letterman's"
p6047
aS'@juanmalird:'
p6048
aS'@TOLEDOSNOW:'
p6049
aS'@JeffJeffsc777:I'
p6050
aS'@WilliamCarneyII'
p6051
aS'@TPLRRT1'
p6052
aS'@insightz:'
p6053
aS'@PuertoRicoOpen'
p6054
aS'@T_Sharp4'
p6055
aS'@itstonybennett'
p6056
aS'@citadelgop'
p6057
aS'@BWANAWOMAN:'
p6058
aS'@justariot66:'
p6059
aS'@C_Archaeology:'
p6060
aS'@henry4_graham'
p6061
aS'@tarashuman:'
p6062
aS'@DNC'
p6063
aS"@TravlandLeisure's"
p6064
aS'@twitt_be_cray:'
p6065
aS'@dcfoodsafety:'
p6066
aS'@EricLahti929'
p6067
aS'@87krusty87:'
p6068
aS'@comfynumb2012'
p6069
aS'@bhill3333:'
p6070
aS"@bobvanderplaats'"
p6071
aS'@StJudeGolf'
p6072
aS'@JaimeSells:'
p6073
aS'@kennymacaskill1'
p6074
aS'@usplaymoney:'
p6075
aS'@abethbyr:'
p6076
aS'@CARepublican12'
p6077
aS'@ZagatChicago:'
p6078
aS'@IGotAngelEyes:'
p6079
aS'@capetown58'
p6080
aS'@NBCAGT'
p6081
aS'@NickFaldo006'
p6082
aS'@aec4444'
p6083
aS'@_ScumPrincess:'
p6084
aS'@zachjohnson88:'
p6085
aS'@ManhattanViking'
p6086
aS'@tuckahoetommy:'
p6087
aS'@ndumisozungu22:'
p6088
aS'@Slave4Suzi:'
p6089
aS'@ScotlandGolf1:'
p6090
aS'@DrJulianXavier:'
p6091
aS'@DanMarino"'
p6092
aS'@peyton2419:'
p6093
aS'@magicdel:'
p6094
aS'@mikehaas33:'
p6095
aS'@MasSergio:'
p6096
aS'@african11'
p6097
aS'@sheckiezx'
p6098
aS'@daytradersfx'
p6099
aS'@dintres:'
p6100
aS'@eScarry:'
p6101
aS'@RealSQUEZZ'
p6102
aS'@nickterry18:'
p6103
aS'@SamJabbo'
p6104
aS'@daveesnova:'
p6105
aS'@subirchowdhury'
p6106
aS'@cwbmustang'
p6107
aS'@MeganEHolstein:'
p6108
aS'@nfl.'
p6109
aS'@mldsphotography:'
p6110
aS'@laurbodd:'
p6111
aS'@MichaelPampena'
p6112
aS'@nfl"'
p6113
aS'@therealhillyard'
p6114
aS'@goangelo'
p6115
aS'@DELAVEGAPROPHET'
p6116
aS'@gene70'
p6117
aS'@MattyJack33:'
p6118
aS'@JacksonHoleSue:'
p6119
aS'@merryman34:'
p6120
aS'@MarkDRucker1:'
p6121
aS'@andrew_schinds:'
p6122
aS'@natalie_gulbis:'
p6123
aS'@jesssizzle28:'
p6124
aS'@HerschelWalker'
p6125
aS'@rgorman33:'
p6126
aS'@DSTGolf:'
p6127
aS'@STAR13R:'
p6128
aS'@ericbolling:'
p6129
aS'@PGA_com:'
p6130
aS'@kpmck63:'
p6131
aS'@FinestGolfHoles'
p6132
aS'@rodmonium91:'
p6133
aS'@JPWV64'
p6134
aS'@CNNPolitics"'
p6135
aS'@jywjr'
p6136
aS'@MCaruso_Cabrera'
p6137
aS'@kmbznews'
p6138
aS'@DON_Ekwegba:'
p6139
aS'@GuyScott33:'
p6140
aS'@TrumpScotland'
p6141
aS'@YoSoyTuMarido_:'
p6142
aS'@ErinatTheSun:'
p6143
aS'@PennyStocksBlog'
p6144
aS'@SternFanMutt'
p6145
aS'@damonpostal'
p6146
aS'@WrestlingInc'
p6147
aS'@CNNPolitics:'
p6148
aS'@Taylor_McBath:'
p6149
aS'@SquawkCNBC.'
p6150
aS'@SquawkCNBC,'
p6151
aS'@Robhammond11:'
p6152
aS'@MattEChase:'
p6153
aS'@SquawkCNBC:'
p6154
aS'@DanHenninger'
p6155
aS'@joeromes2'
p6156
aS'@dennizenx'
p6157
aS'@carlyvowell'
p6158
aS'@kwqcnews:'
p6159
aS'@ScotlandGolf1'
p6160
aS'@KeatsBen:'
p6161
aS'@CPACnews:'
p6162
aS'@Gabagul_'
p6163
aS'@glfceo:'
p6164
aS'@TheBingle:Only'
p6165
aS'@AlecBordelon:'
p6166
aS'@melaniatrump'
p6167
aS'@allidoisowen'
p6168
aS'@ariannahuff'
p6169
aS'@joebud123:'
p6170
aS'@SunnyPahoujaDDS:'
p6171
aS'@vindictivraider:'
p6172
aS'@LibertyU,'
p6173
aS'@moonorion:'
p6174
aS'@MaryRosesGarden'
p6175
aS'@Larry_Kudrow'
p6176
aS'@amieburton2010'
p6177
aS'@GovWalker'
p6178
aS'@cdgrafics:'
p6179
aS'@GenuineAccess:'
p6180
aS'@eagles'
p6181
aS'@BirdseyeKite:'
p6182
aS'@AlbertoZambrano:'
p6183
aS'@dm3300:'
p6184
aS'@thorpe81:'
p6185
aS'@danica2013:'
p6186
aS'@Beardymilne'
p6187
aS'@Lord_Sugar??'
p6188
aS'@MailOnline"'
p6189
aS'@TrumpCNGrounds'
p6190
aS'@wingchungun:'
p6191
aS'@TheBillyRobbins:'
p6192
aS'@serenawilliams.'
p6193
aS'@nysportfan4life:'
p6194
aS'@Omarosa.'
p6195
aS'@elliottframing:'
p6196
aS'@webdotcom'
p6197
aS"@MickyArison's"
p6198
aS'@AnnInquirer'
p6199
aS'@Highlander6700:'
p6200
aS'@TEAM_ACKMANN:'
p6201
aS'@peaceloveandmeg'
p6202
aS'@wykkdlilchit:'
p6203
aS'@danabrams'
p6204
aS'@WilsonLeeFlores:'
p6205
aS'@David_Bossie,'
p6206
aS'@mjayshilling'
p6207
aS'@benjamin_abey:'
p6208
aS'@lucaswilson911:'
p6209
aS'@mandem3:'
p6210
aS'@APHospital'
p6211
aS'@SavingNancy:'
p6212
aS'@golfvoyager:'
p6213
aS'@taylorj0103'
p6214
aS'@abhishek_ktm:'
p6215
aS'@JimMcLeanDoral'
p6216
aS'@repostapp.Thank'
p6217
aS'@geoff_deweaver:'
p6218
aS'@Joe_Mangieri:'
p6219
aS'@RonWEmma:'
p6220
aS'@DavidMcClain328'
p6221
aS'@DagnyRed'
p6222
aS'@clayaiken,'
p6223
aS'@CatoInstitute'
p6224
aS'@george_frye:'
p6225
aS'@df387'
p6226
aS'@AubreyODay'
p6227
aS"@RealSheriffJoe's"
p6228
aS'@mhojnacki:'
p6229
aS'@ericbolling'
p6230
aS'@TimWristen'
p6231
aS'@mm13815:'
p6232
aS'@Mackiaveli13:'
p6233
aS'@Kingofgames3000:'
p6234
aS'@mboyle1'
p6235
aS'@BornAgain8344'
p6236
aS'@winkiechance:'
p6237
aS'@TTH7:'
p6238
aS'@rbrohammer:'
p6239
aS'@Newsweek'
p6240
aS'@Law360:'
p6241
aS'@KJLLeonard'
p6242
aS'@BillRancic:10'
p6243
aS'@ILOVEBRITNEY_7:'
p6244
aS'@jeff_lip'
p6245
aS'@jean_penny:'
p6246
aS'@ChrisFoley_:'
p6247
aS'@blmeek:'
p6248
aS'@MeWonderful2:'
p6249
aS'@jcfields13'
p6250
aS'@LickNenahan:'
p6251
aS'@achieverdan'
p6252
aS'@Theprepguy:'
p6253
aS'@NHBusinessAtty:'
p6254
aS'@ShalontaBowman:'
p6255
aS'@_MeganEve:'
p6256
aS'@LinRo_2:'
p6257
aS'@DHarley187:'
p6258
aS'@MelvilleVogel:'
p6259
aS'@benfromdallas'
p6260
aS'@AMENREMINISCE:'
p6261
aS'@NRO:'
p6262
aS'@MrBrentAllen:'
p6263
aS'@NRO"'
p6264
aS'@pharris610'
p6265
aS'@TravieMcCoy'
p6266
aS'@theregister"'
p6267
aS'@brentcfritz:'
p6268
aS'@PALoeza:'
p6269
aS'@SternShow'
p6270
aS'@DrLisaCoaching'
p6271
aS'@alphaMOMster:'
p6272
aS'@istoddisgood:'
p6273
aS'@AlRoccaa'
p6274
aS'@SemiNoland:'
p6275
aS'@renee_mk:'
p6276
aS'@bentomchik:'
p6277
aS'@dulcifybp'
p6278
aS'@Univision'
p6279
aS'@ABCPolitics'
p6280
aS'@billclinton'
p6281
aS'@sternshow!'
p6282
aS'@joandkev8:'
p6283
aS'@michaelwalkerjr:'
p6284
aS'@jkellywwip:'
p6285
aS'@sternshow.'
p6286
aS'@libertybellskp'
p6287
aS'@rink914:'
p6288
aS'@Rudmania20'
p6289
aS'@nonstop85716'
p6290
aS'@murekar'
p6291
aS'@colonopenbrakit'
p6292
aS'@jaymiller283:'
p6293
aS'@GlamorousTeam:'
p6294
aS'@simonsam'
p6295
aS'@jsavino16'
p6296
aS'@alphatreblesix'
p6297
aS'@BarrusTJ:'
p6298
aS'@emilyhoms'
p6299
aS'@kayvbb'
p6300
aS'@daveyhubb:'
p6301
aS'@KosloffM'
p6302
aS'@bf2088'
p6303
aS'@jam1ryn:'
p6304
aS'@ArsenalHobbo'
p6305
aS'@LuLuBillie2010'
p6306
aS'@jacksback2009:'
p6307
aS'@Jenylyn23:'
p6308
aS'@MitchPrefach:'
p6309
aS'@nandigold13:'
p6310
aS'@DrVinayChopra:'
p6311
aS'@GraemeReid1984'
p6312
aS'@vin609:'
p6313
aS'@rogergreig'
p6314
aS'@joannalmoore372:'
p6315
aS'@RealHollisHicks'
p6316
aS'@RebaForever58'
p6317
aS'@trdny:'
p6318
aS"@zagat's"
p6319
aS'@InfamusG12:'
p6320
aS'@thaLilBit'
p6321
aS'@ToddRiddolls:'
p6322
aS'@Semjazaraziel:'
p6323
aS'@magnumCJ:'
p6324
aS'@joniernst'
p6325
aS'@LovelaceRyanD:'
p6326
aS'@fackinpeter'
p6327
aS'@TrumpGolfLinks'
p6328
aS'@TheEllenShow'
p6329
aS'@TonyCinMo:'
p6330
aS'@BrklynSportGeek'
p6331
aS'@insuradude:'
p6332
aS'@ept_rudyru:'
p6333
aS'@mallhayden11:'
p6334
aS'@CarmineMig21:'
p6335
aS'@RhondaMemphis'
p6336
aS'@metaltyger98:'
p6337
aS'@TrumpSoHo'
p6338
aS'@pewresearch,'
p6339
aS'@DominicFormaro:'
p6340
aS'@hammetjohn'
p6341
aS"@Facebook's"
p6342
aS'@hartataq81:'
p6343
aS'@nicrob650:'
p6344
aS'@graeme123s'
p6345
aS'@Jaguar11d:'
p6346
aS'@C...'
p6347
aS'@PJTV'
p6348
aS'@FunkynFortunate:'
p6349
aS'@dozin11:'
p6350
aS'@ConnieMackIV'
p6351
aS'@FollowTurkey'
p6352
aS'@occhoppers....'
p6353
aS'@CodyBaine:'
p6354
aS'@TheCock_Bull:'
p6355
aS'@Noce82:'
p6356
aS'@kdharris59'
p6357
aS'@MCuban'
p6358
aS'@sarahluvnyc'
p6359
aS'@SixteenChicago'
p6360
aS'@RogerClemens.'
p6361
aS'@kayyyygeeeee:'
p6362
aS'@PaulWTalk'
p6363
aS'@erictrump.'
p6364
aS'@NH_PoliticalRpt:'
p6365
aS'@DrZuhdiJasser'
p6366
aS"@FreqBizTraveler's"
p6367
aS'@slumpcityusa'
p6368
aS'@NateDolphinAL:'
p6369
aS'@DonnyDeutsch'
p6370
aS'@jimlockwoodshow'
p6371
aS'@CBNNews'
p6372
aS'@Wastehe:'
p6373
aS'@hoffers1:'
p6374
aS'@trackdonny:'
p6375
aS'@RandySpangler'
p6376
aS'@TheTinaBeast'
p6377
aS'@BradRichdale:'
p6378
aS'@...'
p6379
aS'@RustyOsborne15:'
p6380
aS'@blissgal:'
p6381
aS'@THEGaryBusey.'
p6382
aS'@AboubacarMande:'
p6383
aS'@jethrosteve:'
p6384
aS'@milosuperpug:'
p6385
aS'@warrencasselljr'
p6386
aS'@conedison'
p6387
aS'@HoldingUpThree'
p6388
aS'@ChrisChristie'
p6389
aS'@mbmirish:'
p6390
aS'@'
aS'@tormike:'
p6391
aS'@Resi_Diederich:'
p6392
aS'@Trump_Ireland:'
p6393
aS'@LuxTravelExpert:'
p6394
aS'@grant_hose'
p6395
aS'@roebeauty:'
p6396
aS'@foxnation:'
p6397
aS'@michaeljohns:'
p6398
aS'@Trump_Ireland,'
p6399
aS'@LoveyHowell:'
p6400
aS'@Trump_Ireland!'
p6401
aS'@LuxTravelExpert,'
p6402
aS'@bigicedaddy:'
p6403
aS'@StephenMangan:'
p6404
aS'@KieranLalor:'
p6405
aS'@therealtommydel:1'
p6406
aS'@angie_ncislover'
p6407
aS'@DurandSentinus:'
p6408
aS'@itscharlotteann'
p6409
aS'@OneAndOnlyRiz:'
p6410
aS'@Bossman140:'
p6411
aS'@TrumpPhillyGM:'
p6412
aS'@FoxNews...then'
p6413
aS'@ElsForAutism.'
p6414
aS'@leetimlin0511:'
p6415
aS'@MrJamesDavidson'
p6416
aS'@RonWyden'
p6417
aS'@BlakeWebb6:'
p6418
aS'@Meep_Swizzle:'
p6419
aS'@ElsForAutism:'
p6420
aS'@YankeeRunnerLV:'
p6421
aS'@mikhiett'
p6422
aS'@DritaDavanzo'
p6423
aS'@bongsi21'
p6424
aS'@GeneMcVay'
p6425
aS'@JobCreatorsUSA'
p6426
aS'@nanaelaine7'
p6427
aS'@DanSt_Schwind'
p6428
aS'@nicolesavilla:'
p6429
aS'@TXPride80:'
p6430
aS'@Toure:'
p6431
aS'@615realjg:'
p6432
aS'@AnubisJudge'
p6433
aS'@ChinoMaidana'
p6434
aS'@GaryPlayer'
p6435
aS'@InsideEdition'
p6436
aS'@Toure,'
p6437
aS'@Jasonebean'
p6438
aS'@carrillo_pete:'
p6439
aS'@chef_riggy'
p6440
aS'@xoleahjackson:'
p6441
aS'@apprenticeNBC.'
p6442
aS'@BMP_Music_Event'
p6443
aS'@serenawilliams'
p6444
aS'@sverriss:'
p6445
aS'@extratv'
p6446
aS'@HarvardLaw99:'
p6447
aS'@MrMarin88:'
p6448
aS'@TodayShow'
p6449
aS'@homeedmam'
p6450
aS'@_xx_justme:'
p6451
aS'@Shaun_White'
p6452
aS'@SharleneH'
p6453
aS'@MsCattitude1'
p6454
aS'@lisaloren11:'
p6455
aS'@JeffJlpa1'
p6456
aS'@ShannonAirport'
p6457
aS'@captainluc'
p6458
aS'@AmDiabetesAssn:'
p6459
aS'@dasboot96'
p6460
aS'@zed_crtr'
p6461
aS'@DeannaSpillyard:'
p6462
aS'@wesleyjmcmillan:'
p6463
aS'@ColemanG81:'
p6464
aS'@JoeNBC'
p6465
aS'@scottacquavella'
p6466
aS'@teddyschleifer:'
p6467
aS'@jwpicciotto:'
p6468
aS'@dabg3241'
p6469
aS'@MattTowery'
p6470
aS'@lukemckinney'
p6471
aS'@nicolas_toscano:'
p6472
aS'@cronin_michelle'
p6473
aS'@TonyCatering'
p6474
aS'@SteveMarz1:'
p6475
aS'@AmyRusso108:'
p6476
aS'@bestgolfleague:'
p6477
aS'@KillingTime2015:'
p6478
aS'@AllenWest'
p6479
aS'@jimmykimmel'
p6480
aS'@Lrac_Samoht:'
p6481
aS'@pearlharry'
p6482
aS'@MayorBloomberg'
p6483
aS'@dchamp5810:'
p6484
aS'@BlazeBluntsky'
p6485
aS'@NathanAmato:'
p6486
aS'@Maxinerunner:'
p6487
aS'@GolfDigest'
p6488
aS'@Scleroshima:'
p6489
aS'@Wallys1700:'
p6490
aS'@JayLeno'
p6491
aS'@whoopigoldberg,'
p6492
aS'@AAcrowellt'
p6493
aS'@TheLongShotzz:'
p6494
aS'@adamjackson73'
p6495
aS'@candla:'
p6496
aS'@kwrcrow:'
p6497
aS'@ethwhiteThanks--you'
p6498
aS'@fubaglady:'
p6499
aS'@PBS'
p6500
aS'@MannaaEyad'
p6501
aS'@SonofGodMovie-'
p6502
aS'@PeaceLibLady'
p6503
aS'@thatjguy92:'
p6504
aS'@ximenanr'
p6505
aS'@drumline_mormon'
p6506
aS'@BrittMcHenry'
p6507
aS'@elisa_oggero:'
p6508
aS'@Read_my_note'
p6509
aS'@Knight276:'
p6510
aS'@Bravotv'
p6511
aS'@smccauley1972:'
p6512
aS'@Champion278:'
p6513
aS'@LaneLynmil:'
p6514
aS'@sundayhorse'
p6515
aS'@4kmiddlebrook:'
p6516
aS'@Rockinar'
p6517
aS'@SHAQ'
p6518
aS'@Sabretooth94:'
p6519
aS'@Crackmacs:'
p6520
aS'@TeaPartyHub:'
p6521
aS'@BElizondo2:'
p6522
aS'@T...'
p6523
aS'@VinceFox73:'
p6524
aS'@seanbarakett:'
p6525
aS'@pinguspusher'
p6526
aS'@WSJSports'
p6527
aS'@S_C_mclane:'
p6528
aS'@dancriscuolo:'
p6529
aS'@RobertMcCallis3'
p6530
aS'@RandyTotty'
p6531
aS'@sirtyro'
p6532
aS'@_John_Handel:'
p6533
aS'@southsalem:'
p6534
aS'@Kbyon:'
p6535
aS'@Newsoffamous_:'
p6536
aS'@TheRealMarilu:'
p6537
aS'@MELANIA'
p6538
aS'@WWE__History:'
p6539
aS'@TrumpFerryPoint'
p6540
aS'@NRA.'
p6541
aS'@TheRealMarilu!'
p6542
aS'@AmyMek:'
p6543
aS'@LanaH11:'
p6544
aS'@TheTeflonDante'
p6545
aS'@AmericanThinker'
p6546
aS'@KarenAsh1560'
p6547
aS'@TheRealMarilu.'
p6548
aS'@moekamerow:'
p6549
aS'@afielding1984:'
p6550
aS'@FreedomsPatriot:'
p6551
aS'@GMCallahanJr:'
p6552
aS'@AC360'
p6553
aS'@NSHBIZSichko'
p6554
aS'@AlexDavisChevy:'
p6555
aS'@PGAJrLeagueGolf'
p6556
aS'@nstegm'
p6557
aS'@HCannonball'
p6558
aS'@restore_US_now:'
p6559
aS'@NBCUDirect:'
p6560
aS'@ben_techpro:'
p6561
aS'@AlxG21'
p6562
aS'@TrumpPanama'
p6563
aS'@RoborBobor'
p6564
aS'@MikeM'
p6565
aS'@realdonaldtrump.'
p6566
aS'@TrumpChicago.'
p6567
aS'@TrumpChicago,'
p6568
aS'@extra_deep:'
p6569
aS'@dpburg'
p6570
aS'@TrumpModels!'
p6571
aS'@dongibson12'
p6572
aS'@itsmeMVP'
p6573
aS'@TrumpChicago!'
p6574
aS'@VP'
p6575
aS'@thedailymeal.'
p6576
aS'@TrumpChicago:'
p6577
aS'@michellemalkin'
p6578
aS'@tonescotland:'
p6579
aS'@Wendydyer2'
p6580
aS'@vettesetter:'
p6581
aS'@conservativeJT:'
p6582
aS'@stephenfhayes.'
p6583
aS'@stephenfhayes,'
p6584
aS'@JordanKnoxville'
p6585
aS'@POLITICOMag'
p6586
aS'@stephenfhayes:'
p6587
aS'@DTomback:'
p6588
aS'@USARestoring:'
p6589
aS'@IvanGH'
p6590
aS'@washtimes'
p6591
aS'@kmcs1957:'
p6592
aS'@funnsylvania:'
p6593
aS'@theviewtv.'
p6594
aS'@30carguy:'
p6595
aS'@justnise:'
p6596
aS'@Oprah!'
p6597
aS'@ryanbushby:'
p6598
aS'@Beyon:'
p6599
aS'@macresslertech:'
p6600
aS'@GolferMatt23:'
p6601
aS'@Oprah.'
p6602
aS'@davidrhythmguit:'
p6603
aS'@lookingforward8'
p6604
aS'@BrandiGlanville'
p6605
aS'@SMarkelon:'
p6606
aS'@Oprah?'
p6607
aS'@B2Tac:'
p6608
aS'@maggie101956'
p6609
aS'@OfficialMCD.'
p6610
aS'@incuhoob112:'
p6611
aS'@la_loquita'
p6612
aS'@sonoman24'
p6613
aS'@lizboyle98:'
p6614
aS'@rwerhle:'
p6615
aS'@BarackObama...in'
p6616
aS'@teh_jaybee:'
p6617
aS'@RealSQUEZZ:'
p6618
aS'@CoreyRittmaster'
p6619
aS'@trumpto:'
p6620
aS'@IvoryRymes:'
p6621
aS'@Slate:'
p6622
aS"@katiecouric's"
p6623
aS'@lorry_bennetti:'
p6624
aS'@AdeleBrumley'
p6625
aS'@SeadogNavyPier:'
p6626
aS'@getownedbyjones:'
p6627
aS'@fehertwit'
p6628
aS'@legsidelizzy:'
p6629
aS'@Lrihendry:'
p6630
aS'@renovacion:'
p6631
aS'@worldnetdaily'
p6632
aS'@Mason_Marcucci:'
p6633
aS"@PGATOUR's"
p6634
aS'@GeorgeWill,'
p6635
aS'@DurandSentinus'
p6636
aS'@kingjersey1'
p6637
aS'@PGATOUR'
p6638
aS'@NeBonnie:'
p6639
aS'@kavemanrj'
p6640
aS'@CBNNews:Exclusive:'
p6641
aS'@abbysullz:'
p6642
aS'@crowe_brian:'
p6643
aS"@trumpwinery's"
p6644
aS'@TowerRecordsPrj:'
p6645
aS'@laura711hender:'
p6646
aS'@NattieBright:'
p6647
aS'@catharineelise:'
p6648
aS'@limbaugh'
p6649
aS'@ERIECOUNTYGOP'
p6650
aS'@Lakers305'
p6651
aS'@IslesFan83:'
p6652
aS'@TamiMiddleton'
p6653
aS'@LateShow'
p6654
aS'@Miranda_Diplo:'
p6655
aS'@SeanKAnderson'
p6656
aS'@buildordie_com'
p6657
aS'@cous13'
p6658
aS'@jnicoletti15'
p6659
aS'@EveningExpress:'
p6660
aS'@MetalMadSean:'
p6661
aS'@LisaRiv76873320:'
p6662
aS'@PatrickStinard'
p6663
aS'@porterairlines'
p6664
aS'@brandongersh:'
p6665
aS'@erintighe_'
p6666
aS'@IvankaTrump...'
p6667
aS'@seandburke:'
p6668
aS'@jimlibertarian'
p6669
aS'@AnnCoulter'
p6670
aS'@kronayne'
p6671
aS'@RocknrollRK:'
p6672
aS'@kyleraccio'
p6673
aS'@trdmiami:'
p6674
aS'@Wasted_Talent19:'
p6675
aS'@RealPro4Real'
p6676
aS"@clayaiken's"
p6677
aS'@danfeehan1:'
p6678
aS'@tannermarkboots'
p6679
aS'@JDPower'
p6680
aS'@TVbytheNumbers:'
p6681
aS'@BloombergLuxury'
p6682
aS'@Citizens_United'
p6683
aS'@CryptOhio:'
p6684
aS'@AGSchneiderman--Spitzer'
p6685
aS'@TarHeelFullback:'
p6686
aS'@Riddzey32:'
p6687
aS'@BlairKamin"'
p6688
aS'@joerusso9:'
p6689
aS'@sarzitron:'
p6690
aS"@CNN's"
p6691
aS'@LordandTaylor:'
p6692
aS'@amitgupta9'
p6693
aS"@BillMoyers'"
p6694
aS'@benwiley3:'
p6695
aS'@ppppolls:'
p6696
aS'@DuncanBannatyne'
p6697
aS'@Kev_360'
p6698
aS'@ppppolls.'
p6699
aS'@sigsauerinc'
p6700
aS'@RepWeiner,'
p6701
aS'@seanparts'
p6702
aS'@MickyArison'
p6703
aS'@FOXNews'
p6704
aS'@TVbytheNumbers:TV'
p6705
aS'@irishabroad:'
p6706
aS'@Scott__Marx'
p6707
aS'@Ohits_You:'
p6708
aS'@StockMarket100'
p6709
aS'@NCartagena27:'
p6710
aS'@bracybuilders:'
p6711
aS'@Midgespeaks'
p6712
aS'@PaulinaBours:'
p6713
aS'@DSpraguePGA'
p6714
aS'@Vanderpunked:'
p6715
aS'@zaneypeterson'
p6716
aS'@lmp999:'
p6717
aS'@ItsColinFowler'
p6718
aS'@Jack_P_Ivory:'
p6719
aS'@jazminvgarcia:'
p6720
aS'@IBDeditorials:'
p6721
aS'@BernardMcGuirk.'
p6722
aS'@GabiOliver26:'
p6723
aS'@DailyCaller'
p6724
aS'@CarolynGoltman'
p6725
aS'@duffman263'
p6726
aS'@EJmedshoppe:'
p6727
aS'@steveman905:'
p6728
aS'@sendrajeremy:'
p6729
aS'@RoniSeale'
p6730
aS'@brettjamess'
p6731
aS'@NHL'
p6732
aS'@PartnerITCanada:'
p6733
aS'@golf_com'
p6734
aS"@macy's"
p6735
aS'@Trump4Pressie:'
p6736
aS'@CoolCanuckChick:'
p6737
aS'@Cookvol:'
p6738
aS'@dan_numba:'
p6739
aS'@IgnatiusPress'
p6740
aS'@chrisexpress5:'
p6741
aS'@audreyfoto'
p6742
aS'@ALTO67:'
p6743
aS'@splashmediabstn:'
p6744
aS'@npbraden'
p6745
aS'@GovMike'
p6746
aS'@PeaceIsWeakness:'
p6747
aS'@CakeItEasy:'
p6748
aS'@NoMoMartychenko:'
p6749
aS'@Robertr369:'
p6750
aS'@Varneyco'
p6751
aS'@ec364:'
p6752
aS'@DennisRodman'
p6753
aS'@WinPropP:'
p6754
aS'@elizwatkins:'
p6755
aS'@Seasons52'
p6756
aS'@ehasselbeck.'
p6757
aS'@Joey_Columbo:'
p6758
aS'@HrvstFoundation'
p6759
aS'@Janet_Carswell'
p6760
aS'@volkermillion'
p6761
aS'@RealBenCarson'
p6762
aS'@Sammycarguru:'
p6763
aS'@BarackObama:'
p6764
aS'@BarackObama?'
p6765
aS'@MediciMario:'
p6766
aS'@realDonaldTrump!"'
p6767
aS'@Ileschinder'
p6768
aS'@redcross'
p6769
aS'@loverofthecross'
p6770
aS'@BarackObama,'
p6771
aS'@BarackObama.'
p6772
aS'@energypryde:'
p6773
aS'@LadyZales:'
p6774
aS'@nbrenewables'
p6775
aS'@MissUniverseHom:'
p6776
aS'@GallivantGuide:'
p6777
aS'@nickcokley:'
p6778
aS'@club4growth'
p6779
aS'@CardinalDolan'
p6780
aS'@PiersTonight:'
p6781
aS'@MadeinNY'
p6782
aS'@mark_yamin:'
p6783
aS'@NickJ102'
p6784
aS'@jmc_Johnson:'
p6785
aS'@atmaxh:'
p6786
aS'@JakeMHS:'
p6787
aS'@nhiop'
p6788
aS'@bfree3423:'
p6789
aS'@TODAYshow'
p6790
aS'@mikeluis93'
p6791
aS'@iSmoke_POTter:'
p6792
aS'@paulfincher2'
p6793
aS'@MoorePhilly:'
p6794
aS'@FortuneMagazine:'
p6795
aS'@immlawyercanada:'
p6796
aS'@Barack'
p6797
aS'@ctmommy:'
p6798
aS'@mattj4226'
p6799
aS'@SandraBoag:'
p6800
aS'@Double_A2011:'
p6801
aS'@MartyCPA:'
p6802
aS'@StJude,'
p6803
aS'@Todayshow'
p6804
aS'@davidd0069:'
p6805
aS'@JeffZephir'
p6806
aS'@Buhlebabe:'
p6807
aS'@DenizTweets'
p6808
aS'@StJude.'
p6809
aS'@EricTrumpFDN'
p6810
aS'@1ChrisJoly:'
p6811
aS'@Cabraler:'
p6812
aS'@johnrich'
p6813
aS'@NewsCorpse'
p6814
aS'@CharlieMaikis:'
p6815
aS'@SeanHannity'
p6816
aS'@Miranda_Diplo'
p6817
aS'@SOS2day:'
p6818
aS'@Jumpman23"'
p6819
aS'@JackMartin32'
p6820
aS'@marinacitynews:'
p6821
aS'@StayFiveStar:'
p6822
aS'@starsign911:'
p6823
aS'@61Webhead:'
p6824
aS'@marleematlin.'
p6825
aS'@slees1705'
p6826
aS'@SPDoubleYou:'
p6827
aS'@AreL714:'
p6828
aS'@nozzero'
p6829
aS'@AndrewVaccari:'
p6830
aS'@OMAROSA?'
p6831
aS'@Ask2Recv:'
p6832
aS'@Bill_Collector_:'
p6833
aS'@onedaddy26'
p6834
aS'@tam69sc:'
p6835
aS'@ZootmanTom'
p6836
aS'@susanhoffman24:'
p6837
aS'@stephencranford:'
p6838
aS'@vanillasicks'
p6839
aS'@thetrumpmafia'
p6840
aS'@AmazinHOF'
p6841
aS'@_chanelelle_:'
p6842
aS'@MikeT_CT:'
p6843
aS'@BrendaRigney'
p6844
aS'@MandMpanelbeat'
p6845
aS'@NeNeLeakes'
p6846
aS"@realDonaldTrump--'Lack"
p6847
aS'@upsetNavyVet'
p6848
aS'@SanStar_eMedia:'
p6849
aS'@BreakwaterCHI:'
p6850
aS'@MANX38'
p6851
aS'@CaliPaulMichael'
p6852
aS'@muzic'
p6853
aS'@lordandtaylor'
p6854
aS'@thebageldogs'
p6855
aS'@Agent_54'
p6856
aS'@MoshoodAluko:'
p6857
aS'@PatheosFamily'
p6858
aS'@ScoodieGolden'
p6859
aS'@Stjude.'
p6860
aS'@FamousUmair'
p6861
aS'@MaryEnglish67'
p6862
aS'@samvuko:'
p6863
aS'@landbhotels:'
p6864
aS'@GBrucato21'
p6865
aS'@Kirby_Weasley:'
p6866
aS'@GiulianaRancic'
p6867
aS'@john_siracusa:'
p6868
aS'@stevemarkovic'
p6869
aS'@JohnRich'
p6870
aS'@PattyWagSwag:'
p6871
aS'@RunPureMichigan'
p6872
aS'@SmiloTweets'
p6873
aS'@chip0tle_:'
p6874
aS'@ann_eads:'
p6875
aS'@TruckerSamF:'
p6876
aS'@Sebast_Valmont:'
p6877
aS'@bdbender1:'
p6878
aS'@YossiGestetner'
p6879
aS'@IrishNewsChgo'
p6880
aS'@ALLEN1328:'
p6881
aS'@kissangel864:'
p6882
aS'@RealJamesWoods'
p6883
aS'@jennyfromnexus.'
p6884
aS'@Likud_Party'
p6885
aS'@WineEnthusiast,'
p6886
aS'@PeerIndex'
p6887
aS'@yvonnecr'
p6888
aS'@stevenowell'
p6889
aS'@SavvY_PriNceSS'
p6890
aS'@princeetornam'
p6891
aS'@seangeezee:'
p6892
aS'@murphy756:'
p6893
aS'@ProgressIndex:'
p6894
aS'@garretdl:'
p6895
aS'@tlcesq'
p6896
aS'@jesuspacheco58:'
p6897
aS'@dunn_cheri:'
p6898
aS'@cbalfer'
p6899
aS'@AmSpec!'
p6900
aS'@shawcrossblue'
p6901
aS'@MaraLiasson,'
p6902
aS'@SharNeal'
p6903
aS'@TheAlexanderW_:I'
p6904
aS'@BrianCraigShow:'
p6905
aS'@RUSHLvR1:'
p6906
aS'@realtormag'
p6907
aS'@Stiles_Dub'
p6908
aS'@luisaorozcov:'
p6909
aS'@enoeht85:'
p6910
aS'@SavannahGuthrie'
p6911
aS'@townhallcom:It'
p6912
aS"@JerrySeinfeld's"
p6913
aS'@pgaofamerica:'
p6914
aS'@TonyChalk1:'
p6915
aS'@Newsmax,'
p6916
aS'@vplus:'
p6917
aS'@bamayorgo1:'
p6918
aS'@seketa77'
p6919
aS'@TravlandLeisure!"'
p6920
aS'@yankzpat'
p6921
aS'@MarlboroStan'
p6922
aS'@chiyankfred'
p6923
aS'@steveamani:'
p6924
aS'@Radosevich:'
p6925
aS'@MyView001:'
p6926
aS'@GuyEndoreKaiser:'
p6927
aS'@RachelMenkenNY'
p6928
aS'@MichaelCohen212'
p6929
aS'@TheKrankyGirl:'
p6930
aS'@YMatthews956:'
p6931
aS'@TheJoeOsborne'
p6932
aS'@MarcoPoloMacon:'
p6933
aS'@CraigSJ'
p6934
aS'@SInow'
p6935
aS'@Lking2fly:'
p6936
aS'@mcginness1'
p6937
aS'@Raj_Tut:'
p6938
aS'@ForQ2'
p6939
aS'@theviewtv--Why'
p6940
aS'@chefdavidburke!'
p6941
aS'@dblsolo7'
p6942
aS'@kennymacaskill1:'
p6943
aS'@caholcom53:'
p6944
aS'@Tanann5:'
p6945
aS'@wwpinc.'
p6946
aS'@brucesteve52'
p6947
aS'@trumpchicago)'
p6948
aS'@vctr67:'
p6949
aS'@Pollysdaughter'
p6950
aS'@customwww'
p6951
aS'@PBenza:'
p6952
aS'@GhostDancer_2'
p6953
aS'@PatrickMendezNV:'
p6954
aS'@Canvasguru:'
p6955
aS"@SteveKingIA:Trump's"
p6956
aS'@loganfaris:'
p6957
aS'@Tr...'
p6958
aS'@JimPetrus.'
p6959
aS'@ZacharySmitty:'
p6960
aS'@TundraSwans:'
p6961
aS'@Bigpeter184'
p6962
aS'@ehasselbeck'
p6963
aS'@susanbbossie:'
p6964
aS'@BombasticSigma:'
p6965
aS'@Cfeetsrevenge'
p6966
aS'@kuhnl1:'
p6967
aS'@Macys.com'
p6968
aS'@desolatefox:'
p6969
aS'@_jacobsanders_:'
p6970
aS'@NiyaFiya:'
p6971
aS'@heyitsjxo:'
p6972
aS'@Godlike_Virus:'
p6973
aS'@KelliKM'
p6974
aS'@grapewhiskey:'
p6975
aS'@natalieee_fox:'
p6976
aS'@TrumpGolfDC:'
p6977
aS'@williamgardanis:'
p6978
aS'@ErikAunapuu:'
p6979
aS'@RobPortman:'
p6980
aS'@BARRONTRUMP'
p6981
aS'@evaemery'
p6982
aS'@JustinBorges1'
p6983
aS'@damitdutch:'
p6984
aS'@fortworthhomes:'
p6985
aS'@DaveInChrist'
p6986
aS'@missharleyd49'
p6987
aS'@dmcfco:'
p6988
aS'@MikeTokes'
p6989
aS'@RealDonaldTrump:'
p6990
aS'@jpressler:'
p6991
aS'@WTCommunities:'
p6992
aS'@Centaur6D'
p6993
aS'@bigpaulfla:'
p6994
aS'@cbgoober:'
p6995
aS'@RealDonaldTrump,'
p6996
aS'@RealDonaldTrump.'
p6997
aS'@TheGrumpyHusky'
p6998
aS'@AidForAfrica.'
p6999
aS'@rebeccagberg'
p7000
aS'@Anggitalestari1'
p7001
aS'@nyjets'
p7002
aS'@kott2483:'
p7003
aS'@jacknicklaus!'
p7004
aS'@trader_greg'
p7005
aS'@jacknicklaus"'
p7006
aS'@97Musick'
p7007
aS'@CoryBooker'
p7008
aS'@NYTalk:'
p7009
aS'@Discoboy7'
p7010
aS'@HuandaRulz:'
p7011
aS'@dmhar:'
p7012
aS'@Ilove40s:'
p7013
aS'@KiloBunch:'
p7014
aS'@PeteNice1976:'
p7015
aS'@gatorfan122752:'
p7016
aS'@NickyFlash2:'
p7017
aS'@SammartinoBruno,'
p7018
aS"@AROD's"
p7019
aS'@DashJohnston:'
p7020
aS'@ZackAlcorn:'
p7021
aS'@NobamaDotCom:'
p7022
aS'@mikepassmore'
p7023
aS'@mjh811:'
p7024
aS'@merryman34'
p7025
aS'@boonepickens'
p7026
aS'@eaterchicago:'
p7027
aS'@SocSteve:'
p7028
aS'@Reuters'
p7029
aS'@JimSlickatshort:'
p7030
aS'@RandDHenninger'
p7031
aS'@Israel'
p7032
aS'@paul1994loan'
p7033
aS'@SenatorTimScott'
p7034
aS'@ColinTull'
p7035
aS'@cota2012:'
p7036
aS'@Youxia88'
p7037
aS'@AshleyRParker:'
p7038
aS'@Mullaney3000:'
p7039
aS'@CliffShep:'
p7040
aS'@Michelleri:'
p7041
aS'@Michelle823:'
p7042
aS'@seankjensen:'
p7043
aS'@DenZen:'
p7044
aS'@NEYAM760:'
p7045
aS'@mikeoconnell10:'
p7046
aS'@FBNATB'
p7047
aS'@SherriEShepherd-'
p7048
aS"@WSJ's"
p7049
aS'@PG1701:'
p7050
aS'@natalicious40:'
p7051
aS'@JoeNBC:'
p7052
aS'@TunisieAffaires:'
p7053
aS'@MELANIATRUMP.'
p7054
aS'@MELANIATRUMP-'
p7055
aS'@MELANIATRUMP"'
p7056
aS'@MELANIATRUMP!'
p7057
aS'@RickStone1282'
p7058
aS'@JohnTisdall:'
p7059
aS'@MELANIATRUMP:'
p7060
aS'@realDonaldTrumpNo'
p7061
aS'@rodgilbert7'
p7062
aS'@Jean_GeorgesNYC'
p7063
aS'@imredwingfan:'
p7064
aS'@Pri.'
p7065
aS'@Morali_Arch'
p7066
aS'@JohnLegere'
p7067
aS'@Eckbowman:'
p7068
aS"@KarlRove's"
p7069
aS'@FillingerJoanne:'
p7070
aS'@tribecafilmfest.'
p7071
aS'@MichaelPMulhall'
p7072
aS'@DLoesch:'
p7073
aS'@espngolic'
p7074
aS'@IvankaTrump:'
p7075
aS'@xbreanne469:'
p7076
aS'@IvankaTrump?'
p7077
aS'@Cgroll33'
p7078
aS'@Abird95:'
p7079
aS'@IvankaTrump,'
p7080
aS'@IvankaTrump.'
p7081
aS'@IvankaTrump"'
p7082
aS'@NYDNGatecrasher'
p7083
aS'@DavidAFrench:'
p7084
aS'@DamacOfficial:'
p7085
aS'@ArsenioOFFICIAL,'
p7086
aS'@DamacOfficial,'
p7087
aS'@DamacOfficial.'
p7088
aS'@antbaxter'
p7089
aS'@pollsterpolls'
p7090
aS'@RustyWynnewood:'
p7091
aS'@DragonForce_One:'
p7092
aS'@_ayooPRINCESS:'
p7093
aS'@kasek_craig:'
p7094
aS'@TadBoikins:'
p7095
aS'@HuffPostMedia'
p7096
aS'@DaLynxBk:'
p7097
aS'@ann_txpurple:'
p7098
aS'@DaveDautel:'
p7099
aS'@JAGOfficial:'
p7100
aS'@BarackObama."'
p7101
aS'@dannogallagher7:'
p7102
aS'@elisefoley'
p7103
aS'@joshjame:'
p7104
aS'@adair_ariel:'
p7105
aS'@Chris_W_Lawson'
p7106
aS'@Spen_A_John:'
p7107
aS'@ss19026:'
p7108
aS'@gene70:'
p7109
aS'@Helpful_Karen:T'
p7110
aS'@TheSportsSwede'
p7111
aS'@sportcork:'
p7112
aS"@willweatherford's"
p7113
aS"@IvankaTrump's"
p7114
aS'@myangel82'
p7115
aS'@thedealszone'
p7116
aS'@sailor7:'
p7117
aS'@GradyPowell3:'
p7118
aS'@SwagDaddyYol0:'
p7119
aS'@Numerologynow'
p7120
aS'@HotelChatter!'
p7121
aS'@EdRoc72:'
p7122
aS'@coffeepleaseAM'
p7123
aS'@amandaphantm'
p7124
aS'@WayneDupreeShow'
p7125
aS'@RichKowalski31:'
p7126
aS'@GameANew:'
p7127
aS'@JayBThomas:'
p7128
aS'@WriteReadRock:'
p7129
aS'@pellman11:'
p7130
aS'@clary77'
p7131
aS'@latoyajackson'
p7132
aS'@1776Pirate:'
p7133
aS'@Austan_Goolsbee'
p7134
aS'@Chixbeach:'
p7135
aS'@RM_MMBtuGirl:'
p7136
aS'@caleb2207'
p7137
aS'@bostonmarathon.'
p7138
aS'@DeanAllen12:'
p7139
aS'@edevon13:'
p7140
aS'@CadillacChamp,'
p7141
aS'@PashaRozay:'
p7142
aS'@CadillacChamp.'
p7143
aS'@CadillacChamp!'
p7144
aS'@CadillacChamp"'
p7145
aS'@VinnyMalpica'
p7146
aS'@CadillacChamp:'
p7147
aS'@CadillacChamp?'
p7148
aS'@BrianGirardot:'
p7149
aS'@A_Roy0317:'
p7150
aS'@Alex_WJ_Milne:'
p7151
aS'@bradkosar:'
p7152
aS'@justingodfrey'
p7153
aS'@jamesreid88'
p7154
aS'@nbcsnl'
p7155
aS'@NPCHughes:'
p7156
aS'@HulkHogan--he'
p7157
aS'@Smile4Riley:'
p7158
aS'@EyeOnGolf'
p7159
aS'@JRMcClaren:'
p7160
aS'@TrumpGolfLinks.'
p7161
aS'@AshleyTSidman'
p7162
aS'@Libsaredemfools:'
p7163
aS'@eastonelliott22:@_Tsac_'
p7164
aS'@chucktodd:'
p7165
aS'@OMAROSA.'
p7166
aS'@anthonyjmyers:'
p7167
aS'@NECouncil'
p7168
aS'@rosschisholm10:'
p7169
aS'@kristinkgl:'
p7170
aS'@MikeTGA:'
p7171
aS'@Andrew_purcell:'
p7172
aS'@dryan5962:'
p7173
aS'@KCarrera_:'
p7174
aS'@Gabigayle'
p7175
aS'@TpGraf82'
p7176
aS'@megynkelly'
p7177
aS'@RickSantorum!'
p7178
aS'@ArsenioOFFICIAL'
p7179
aS'@Beyonce'
p7180
aS'@djkevritch'
p7181
aS'@123Jayne:'
p7182
aS'@99or1youdecide'
p7183
aS'@RogerBiles'
p7184
aS'@FrancoLofranco:'
p7185
aS'@pearlingjosh'
p7186
aS'@TheCulturalMile'
p7187
aS'@puppyslug'
p7188
aS'@trottofficial'
p7189
aS'@TourCentralPark:'
p7190
aS'@Ashtonmartintmt:'
p7191
aS'@rodmonium91'
p7192
aS'@CherokeeShaman2:'
p7193
aS'@AleksyDaSexy:'
p7194
aS'@PiersComments:'
p7195
aS'@VerumEstLiberta:'
p7196
aS'@AGCCevents'
p7197
aS'@MLB'
p7198
aS'@DC_Decoder:'
p7199
aS'@Wicz_2003'
p7200
aS'@GolfWorldUS'
p7201
aS'@davidgrieve:'
p7202
aS'@stumalec:'
p7203
aS'@CrewSawyer'
p7204
aS'@chingaling3:'
p7205
aS'@DeanPreston76:'
p7206
aS'@TheRC3'
p7207
aS'@OliverOmrf'
p7208
aS'@Newsmax_Media'
p7209
aS'@RBC_Heritage.'
p7210
aS'@codyaa722:'
p7211
aS'@PlaisanceAnn:'
p7212
aS'@DRODELL76:'
p7213
aS'@00patriot'
p7214
aS'@starpulse:'
p7215
aS'@jsalbertousa:'
p7216
aS'@Holly_Looya'
p7217
aS'@geomac24'
p7218
aS'@JohnnyJet:'
p7219
aS'@JustGolfIE:'
p7220
aS'@johnstockwell:'
p7221
aS'@lancearmstrong'
p7222
aS'@Birkin_girl'
p7223
aS'@anthonyeding:'
p7224
aS'@TheGaryBusey-'
p7225
aS'@TheGaryBusey!'
p7226
aS'@tannermarkboots:'
p7227
aS'@rpollockDC:'
p7228
aS'@incfw:'
p7229
aS'@josephkuye:'
p7230
aS'@jdwarren12:'
p7231
aS'@dolliemjs02:'
p7232
aS'@AlexArancio'
p7233
aS'@phattim26:'
p7234
aS'@markpryceagee:'
p7235
aS'@apoliticalbear'
p7236
aS"@MittRomney--Don't"
p7237
aS'@_marryyy:'
p7238
aS'@SRWMiChelleJ:'
p7239
aS'@ESPNGolf'
p7240
aS'@jeffredman5:'
p7241
aS'@liztemkin:'
p7242
aS'@gingram66'
p7243
aS'@Schwarzenegger'
p7244
aS'@Zak_Bagans'
p7245
aS'@sloopjohnb15:'
p7246
aS'@ObamaCare'
p7247
aS'@WLynton:'
p7248
aS'@MichelleMeyer10:'
p7249
aS'@JayRJordan::'
p7250
aS'@JeffJeffsc777:The'
p7251
aS'@The_Open'
p7252
aS'@IPFinancing:'
p7253
aS'@Marshall_Cook:'
p7254
aS'@rupertmurdoch'
p7255
aS'@BillMaher'
p7256
aS'@jrowson7:'
p7257
aS'@SportsTimeOhio'
p7258
aS'@acarra3'
p7259
aS'@jbail33'
p7260
aS'@TheeKentBailey'
p7261
aS'@schwartzb:'
p7262
aS'@NicholasBallasy"'
p7263
aS'@GolfSwingShirt:'
p7264
aS'@JLogossoComedy:'
p7265
aS'@Raffasolaries'
p7266
aS'@dmanhomee:'
p7267
aS'@davidmaraniss'
p7268
aS'@ejpasseos:'
p7269
aS'@TWC'
p7270
aS'@John923:'
p7271
aS'@Minnesotavk81:'
p7272
aS'@LindseyGrahamSC.'
p7273
aS'@artv1028:'
p7274
aS'@BillGates'
p7275
aS'@BarackObama'
p7276
aS'@nathanmporter'
p7277
aS'@frogchip10:'
p7278
aS'@globegazette'
p7279
aS'@JackLypka:'
p7280
aS'@gregfrech:'
p7281
aS'@BrandonMcKinney:'
p7282
aS'@JaseDuckman:'
p7283
aS'@Abtheproducer'
p7284
aS'@bradisin:'
p7285
aS'@Clarko76:'
p7286
aS'@boobdex:'
p7287
aS'@Markyoungco:'
p7288
aS'@samsondunn:'
p7289
aS'@EAWIII:'
p7290
aS'@Emily_Ellyn'
p7291
aS'@SiriusXMPGATOUR'
p7292
aS"@CBNNews'"
p7293
aS"@EricTrump's"
p7294
aS'@David360NC:'
p7295
aS'@wharton'
p7296
aS'@movieloverjohn:'
p7297
aS'@thedailybeast:'
p7298
aS'@mtumulty2001:'
p7299
aS'@Vincemcmahon'
p7300
aS'@KellyTilghmanGC:'
p7301
aS'@TrumpGrill'
p7302
aS'@redellis1:'
p7303
aS'@agirland3boys:'
p7304
aS'@tombwiles:'
p7305
aS'@PGAGrandSlam'
p7306
aS'@thedailybeast.'
p7307
aS'@shelleysherwin'
p7308
aS'@rg_radical99:'
p7309
aS'@RonFromLasVegas'
p7310
aS'@HoboWill:'
p7311
aS'@zachfelber:'
p7312
aS'@NeBonnie'
p7313
aS'@RedCross'
p7314
aS'@PatrickJFSmith'
p7315
aS'@bobby990r_1:'
p7316
aS'@TALK1300'
p7317
aS'@LAgirlrebelyell:Safe'
p7318
aS'@Yra007Unaj:'
p7319
aS'@rua1ri:'
p7320
aS'@grizzlybear9062:'
p7321
aS'@USATODAY:'
p7322
aS'@foxesbA:'
p7323
aS'@EllaKAgency'
p7324
aS'@LaurieRobertson'
p7325
aS'@K33MOTHERAPY:'
p7326
aS'@ChrisStirewalt'
p7327
aS'@USATODAY.'
p7328
aS'@BuzzFeed.'
p7329
aS'@premuse:'
p7330
aS'@gkohlschmidt:'
p7331
aS'@wwulffy:'
p7332
aS'@LeeEllmauerJr:'
p7333
aS'@apple'
p7334
aS'@DukePGA'
p7335
aS'@AlRoccaa:'
p7336
aS'@HunterBalthazor:'
p7337
aS'@JonReidHotchner:'
p7338
aS'@Tjryyyan'
p7339
aS'@mmurph'
p7340
aS'@jhayman2'
p7341
aS'@nicky0472:'
p7342
aS'@TeslaMotors'
p7343
aS'@Joe_Lanser:'
p7344
aS'@Mr_Asuaiko:'
p7345
aS'@sherrymcmurry:'
p7346
aS'@BryantCope:'
p7347
aS'@Horse_75:'
p7348
aS'@2LukeVBeck2:'
p7349
aS'@espn:'
p7350
aS'@PRNewswire'
p7351
aS'@MichelleObama--and'
p7352
aS'@Tyler_TuscChevy:'
p7353
aS'@Golfmagic:'
p7354
aS'@snlyngaas:'
p7355
aS'@yankzpat:'
p7356
aS'@lazymag'
p7357
aS'@rawrlance:'
p7358
aS'@phillipthow:'
p7359
aS'@abdulmalikm103:'
p7360
aS'@MileyCyrus'
p7361
aS'@CodiHart:'
p7362
aS'@jimmymcgreevy:'
p7363
aS'@WeLoveTheDonald:'
p7364
aS'@WeLoveTheDonald?'
p7365
aS'@si_golf:'
p7366
aS'@OpenChampionship'
p7367
aS'@JLin7'
p7368
aS'@Turnberry'
p7369
aS'@BearMountainCR:'
p7370
aS'@FutureCutler:'
p7371
aS'@SemiNoland'
p7372
aS'@PriscoCBS'
p7373
aS'@si_golf.'
p7374
aS'@willsommer'
p7375
aS'@everyoneintheworld'
p7376
aS'@SenzuLean:'
p7377
aS'@bobjharty:'
p7378
aS'@kc5yvv'
p7379
aS'@GOPJim_Davis:'
p7380
aS'@fernandocarnal'
p7381
aS'@andrewyoung'
p7382
aS'@trumpsoho'
p7383
aS'@Britinnv:'
p7384
aS'@ebalky:'
p7385
aS'@Dardonyc16:'
p7386
aS'@patmc454:'
p7387
aS'@sternshow'
p7388
aS'@Michael_Dorris:'
p7389
aS'@HelpUServe'
p7390
aS'@john_candy_:'
p7391
aS'@hailllluminati:'
p7392
aS'@stchristopher18:'
p7393
aS'@moronwatch'
p7394
aS'@BillMoyers'
p7395
aS'@anniehic'
p7396
aS'@foxnation'
p7397
aS'@ukcarioca'
p7398
aS'@nflcommish'
p7399
aS'@SamDoyle12'
p7400
aS'@DrewMadeOFF'
p7401
aS'@JJJ2323:'
p7402
aS'@DannyLofaro:'
p7403
aS'@washingtondc:'
p7404
aS'@MELANIATRUMP'
p7405
aS'@kingkript:'
p7406
aS'@TimWByrd:'
p7407
aS'@damacofficial'
p7408
aS'@Pulse2016:'
p7409
aS'@secaucus00:'
p7410
aS'@NedDust:'
p7411
aS'@MarcPhelan'
p7412
aS'@digitaljournal'
p7413
aS'@David_A_Hurd:'
p7414
aS'@DigitalSpyUS'
p7415
aS'@dawesy_boy:'
p7416
aS'@wfdelong'
p7417
aS'@voguemagazine'
p7418
aS'@Sam_Kotowski:'
p7419
aS'@TheReaLJuiCe88:'
p7420
aS'@BigBrett45:'
p7421
aS'@sunlorrie:'
p7422
aS'@Knight276'
p7423
aS'@Judgenap'
p7424
aS'@Patriots.'
p7425
aS'@HappyGuy201:'
p7426
aS'@joeyhatcher'
p7427
aS'@JanMillerCoHost'
p7428
aS"@Patriots'"
p7429
aS'@Patriots"'
p7430
aS'@_G8:'
p7431
aS'@gem3wood:'
p7432
aS'@JTSTheHill'
p7433
aS'@skyblue2050'
p7434
aS'@JeremySWallace:'
p7435
aS'@NewYorkPost'
p7436
aS'@nydailynews'
p7437
aS'@MarySmi59722224:'
p7438
aS'@billyhallowell'
p7439
aS'@vinnypac:'
p7440
aS'@Ray'
p7441
aS'@thedemonking18:'
p7442
aS'@mrteller'
p7443
aS'@Bamagirl_4_ever:'
p7444
aS'@violets69:'
p7445
aS'@GolfMonthly'
p7446
aS'@thatguy_hickey:'
p7447
aS'@SlwStdySqueeze:'
p7448
aS'@Daily_Record'
p7449
aS'@Chaz_is_so_bomb:'
p7450
aS'@renovacion'
p7451
aS'@kenziestruder:'
p7452
aS'@calicombo:'
p7453
aS'@kimfeather177'
p7454
aS'@ghostofnicky:'
p7455
aS'@WollmanRink!'
p7456
aS'@mattcyr2312:'
p7457
aS'@VanityFair,'
p7458
aS'@dsing33:'
p7459
aS'@VanityFair.'
p7460
aS'@vmisciagna:'
p7461
aS'@AnjiRabadi:'
p7462
aS'@2009softail:'
p7463
aS'@AyrshireChamber:'
p7464
aS"@ClayAiken's"
p7465
aS'@MaxChupailo'
p7466
aS'@VanityFair:'
p7467
aS'@mattklewis:'
p7468
aS'@ladycatherinecd'
p7469
aS'@ArsenioOfficial'
p7470
aS'@KentStGolf'
p7471
aS'@USNewsTravel:'
p7472
aS'@newtgingrich'
p7473
aS'@Hallmarr'
p7474
aS'@CureForJayden:'
p7475
aS'@Eurphrosye'
p7476
aS'@GWRepublicans'
p7477
aS'@MichelinGuideCH:'
p7478
aS'@_trump4potus:'
p7479
aS'@aaronrupe33:'
p7480
aS'@Lumberportal'
p7481
aS'@mbouchon:'
p7482
aS'@Brendaswigert:'
p7483
aS'@WashingtonDCTea'
p7484
aS'@RedNationRising'
p7485
aS'@Facebook'
p7486
aS'@LukeDonald'
p7487
aS"@williebosshog's"
p7488
aS'@britonian:'
p7489
aS'@MKBeattie:'
p7490
aS'@washingtonpost:'
p7491
aS'@danconiapm:'
p7492
aS'@pete_is_king:'
p7493
aS'@spankemewanke18:'
p7494
aS'@realJoeMurray'
p7495
aS'@HaleighBrick:'
p7496
aS'@DoTheLastThing:'
p7497
aS'@nytpolitics'
p7498
aS'@jkapper15:'
p7499
aS'@JeanRalphiooo'
p7500
aS'@splinter48708.'
p7501
aS'@BestBergerEver:'
p7502
aS'@extratv.'
p7503
aS'@mark_esque:'
p7504
aS'@skew11:'
p7505
aS'@MikeFromTN'
p7506
aS'@irishexaminer'
p7507
aS'@A_EduardoPeraza:'
p7508
aS'@MichaelBreed'
p7509
aS'@OwenTew:'
p7510
aS'@TheMikeAwesome'
p7511
aS'@TiffanyATrump'
p7512
aS'@realdonald'
p7513
aS'@RobinFoxNews:'
p7514
aS'@alexniekamp:'
p7515
aS'@trishstratuscom'
p7516
aS'@garthdahdah'
p7517
aS'@ajbarker50:'
p7518
aS'@dothedaniel:'
p7519
aS'@PBS.'
p7520
aS'@marko0524:'
p7521
aS'@FLGovScott"'
p7522
aS'@MariaFotedis:'
p7523
aS'@GotYourSix'
p7524
aS'@JasonGandy:'
p7525
aS'@SovAdjEast'
p7526
aS'@MJVictory:'
p7527
aS'@JonEasley'
p7528
aS'@Valenti317'
p7529
aS'@Mets'
p7530
aS'@kenuckio:'
p7531
aS'@JRichAccel:'
p7532
aS'@VineCulture:'
p7533
aS'@irritatedwoman:'
p7534
aS"@Lord_Sugar--You're"
p7535
aS'@bluestar4fan:'
p7536
aS'@sxeymoney:'
p7537
aS'@andersoncooper'
p7538
aS'@maggieaveu_a'
p7539
aS'@Arseburgers'
p7540
aS'@jhamtiger:'
p7541
aS'@pamplinfilmco:'
p7542
aS'@Debonairo'
p7543
aS'@CNTraveler'
p7544
aS'@lpgranier:'
p7545
aS'@ScottSaia23'
p7546
aS'@TaylorM8888'
p7547
aS'@realDonaldTrump(?)'
p7548
aS'@CMHollon'
p7549
aS'@JollyGoodman181:'
p7550
aS'@washingtonpost'
p7551
aS'@WVUChemE:'
p7552
aS'@Macys--try'
p7553
aS'@SwanRose2013'
p7554
aS'@Poynter'
p7555
aS'@kennethsmithmd:'
p7556
aS'@SethMcLaughlin1:'
p7557
aS'@baberuth99:'
p7558
aS'@bella270012:'
p7559
aS'@TeaPartyOrg'
p7560
aS'@CornWhisky:'
p7561
aS'@dongibson12:'
p7562
aS'@kerriCJ:'
p7563
aS'@TheMissis:'
p7564
aS'@TitanicQueen'
p7565
aS'@MarkDoster:'
p7566
aS'@Tyrone_deverger:'
p7567
aS'@asv620:'
p7568
aS'@UAGolf'
p7569
aS'@GinaandersonRN'
p7570
aS'@GeorgeWill'
p7571
aS'@DannyZuker.'
p7572
aS'@ChadSchiebler:'
p7573
aS'@rickruff23:'
p7574
aS'@MysteryDigger:'
p7575
aS'@MaasMaasWhatup:'
p7576
aS'@McClatchyDC'
p7577
aS'@vijaychopra7'
p7578
aS'@periscopeco'
p7579
aS'@spence_derek'
p7580
aS'@okcthunder'
p7581
aS'@Patti0713'
p7582
aS'@leeboggs:'
p7583
aS'@FL_GIRL979'
p7584
aS'@moniquehorsey'
p7585
aS'@Matglav'
p7586
aS'@P...'
p7587
aS'@autismspeaks'
p7588
aS'@LoyolaLaw:'
p7589
aS'@ClayAiken'
p7590
aS'@Salon"'
p7591
aS'@hotelchatter:'
p7592
aS'@shawncrazyshawn:'
p7593
aS'@alphakonstant'
p7594
aS'@charlierose'
p7595
aS'@TigerWoods-hits'
p7596
aS'@LaydeePrivatier:'
p7597
aS'@SportsProverbs:'
p7598
aS'@MeetinLongBeach:'
p7599
aS'@Alex_Norcia'
p7600
aS'@BluEyedGenius:'
p7601
aS'@FrDunn'
p7602
aS'@iverson233:'
p7603
aS'@TylarReese'
p7604
aS'@PIERPAOLOMONNI:'
p7605
aS'@IzzyIrelandXXX:'
p7606
aS'@MikeG_Beats:'
p7607
aS'@tcolmocallaghan'
p7608
aS'@yankee'
p7609
aS'@d_mc_cullough:'
p7610
aS'@RAW1183'
p7611
aS'@dariusrucker'
p7612
aS'@DeptVetAffairs'
p7613
aS'@CommunityJC'
p7614
aS'@commishjoe:'
p7615
aS'@BernieSanders'
p7616
aS'@PhoenixConvCtr!'
p7617
aS'@cliftonclive:'
p7618
aS'@Fordette12'
p7619
aS'@Rosesroi:'
p7620
aS'@CBSNews'
p7621
aS'@jonareeves6127'
p7622
aS'@business'
p7623
aS'@VictoriaJacobs'
p7624
aS'@ricksmi54256322'
p7625
aS'@ChipGates1:'
p7626
aS'@HISTORY'
p7627
aS'@jaymztyler'
p7628
aS'@BillGates,'
p7629
aS'@fromtheAVE:'
p7630
aS'@igo4par'
p7631
aS'@TalismanJohnnyA'
p7632
aS'@Lisa_Smith70'
p7633
aS'@BarackObama--just'
p7634
aS'@FOXSports'
p7635
aS'@FrankRomeo31:'
p7636
aS'@OWhiting147:'
p7637
aS'@Lisa_LuciaTesta:'
p7638
aS'@TomBrokaw'
p7639
aS'@janetaylorann:'
p7640
aS'@JDCorbinPM:'
p7641
aS'@doralaquatics:'
p7642
aS'@thelastrefuge2~'
p7643
aS'@PressClubDC'
p7644
aS'@KelBug99'
p7645
aS'@KarenHaywood3'
p7646
aS'@MichaelWacha'
p7647
aS'@kirkcameronfan:'
p7648
aS'@PPFA'
p7649
aS'@Highlander6700'
p7650
aS'@daniellecfriel'
p7651
aS'@VinceMirabelli'
p7652
aS'@Golf_2_Win:'
p7653
aS'@scorpio5053'
p7654
aS'@AP'
p7655
aS'@Beliefheals:'
p7656
aS"@realDonaldTrump's"
p7657
aS'@CNNReliable--'
p7658
aS'@AAAnews'
p7659
aS'@di1952:'
p7660
aS'@joeperella3:'
p7661
aS'@RonNussbeck:'
p7662
aS'@PhilipRucker:'
p7663
aS'@AutismOne.'
p7664
aS'@cta'
p7665
aS'@ReaganWorld'
p7666
aS'@susanbbossie'
p7667
aS'@Prince_Keign'
p7668
aS'@dancurran4:'
p7669
aS'@WSJ'
p7670
aS'@MiniGator352:'
p7671
aS'@BonJovi'
p7672
aS'@CNNMoney'
p7673
aS'@parentsmagazine'
p7674
aS'@MzInvestigator:'
p7675
aS'@mearnest33'
p7676
aS'@MissUSA2005:'
p7677
aS'@utwey:'
p7678
aS'@suandres2013:'
p7679
aS'@jtatsuno'
p7680
aS'@CShanton:'
p7681
aS'@BillLester651:'
p7682
aS'@BonnieKit:'
p7683
aS'@pmadden86:'
p7684
aS'@knaweiny21:'
p7685
aS'@jeffbenton1079:'
p7686
aS'@theIRForg'
p7687
aS'@BiffDiddle:'
p7688
aS'@GolfDigestMag'
p7689
aS'@nickjonas'
p7690
aS'@BrandenHarvey'
p7691
aS'@JayLeno!'
p7692
aS'@pegcitytimo:'
p7693
aS'@lovefamously:'
p7694
aS'@alefx33:'
p7695
aS'@PartylikeRlove1'
p7696
aS'@GetawaysGolf:'
p7697
aS'@MailOnline'
p7698
aS'@belllachay:'
p7699
aS'@BillHemmer'
p7700
aS'@WesleyRuedy:'
p7701
aS'@Stevenfclifford'
p7702
aS'@markwcarlson:'
p7703
aS'@JJcompitGolf'
p7704
aS'@PolishPrince21:'
p7705
aS'@itsHODAIFA:'
p7706
aS'@MattWilliams_16:'
p7707
aS'@byron400:'
p7708
aS'@LexiPerez96'
p7709
aS'@ericleebow'
p7710
aS'@NYRangers'
p7711
aS'@Marilynn555'
p7712
aS'@Jared808'
p7713
aS'@ArsenioOfficial-'
p7714
aS'@WrestleMania-'
p7715
aS'@WrestleMania.'
p7716
aS'@CakeBossBuddy'
p7717
aS'@RodriguezAJ100:'
p7718
aS'@Andy241097'
p7719
aS'@Itsyknowsbest'
p7720
aS'@preferrex:'
p7721
aS'@yanicsimard:'
p7722
aS'@an2nym:'
p7723
aS'@tica1975:'
p7724
aS'@PureBeautyTO'
p7725
aS'@ZachDikowski:'
p7726
aS"@MELANIATRUMP's"
p7727
aS'@ZacharyQuinto'
p7728
aS'@successmagazine'
p7729
aS'@Riggs101:'
p7730
aS'@IamToneAntone:'
p7731
aS'@BeaumontAnthony'
p7732
aS'@FCVladJoseph:'
p7733
aS'@chrisbrown'
p7734
aS'@willweatherford'
p7735
aS'@pareene'
p7736
aS'@TMAC7771:'
p7737
aS'@loudobbsnews'
p7738
aS'@SpenceGarcia805:'
p7739
aS'@tigerwoods'
p7740
aS'@SmallTwnBigNews'
p7741
aS'@RealMichaelKay'
p7742
aS'@efarns:'
p7743
aS'@UnderArmour'
p7744
aS'@TrumpVancouver'
p7745
aS'@realDonaldTrump:How'
p7746
aS'@scrappydoo6:'
p7747
aS'@Bigbillyp1970:'
p7748
aS'@ChrisAgada:'
p7749
aS'@LifeZette:Jeb'
p7750
aS'@DaveCentrist'
p7751
aS'@DavidNYCT:'
p7752
aS'@rtoneff25:'
p7753
aS'@MichelleM:'
p7754
aS"@DannyZuker's"
p7755
aS'@TheFix.'
p7756
aS'@ragtopgirl12'
p7757
aS'@LateNightJimmy:'
p7758
aS'@meganKmarrs:'
p7759
aS'@alarae37'
p7760
aS'@JohnKasich'
p7761
aS'@Agustin_Gil:'
p7762
aS'@KGLeipsic:'
p7763
aS'@AyrshireGolfSCO:'
p7764
aS'@Scott__Marx:'
p7765
aS'@CadillacChamp'
p7766
aS'@johnjcarp61'
p7767
aS'@MMValetServicez:'
p7768
aS'@wakafee1017'
p7769
aS'@keriandjen:'
p7770
aS'@KhadeejaNicolle:'
p7771
aS'@MagnaSearchGRP'
p7772
aS'@AplemonLemon'
p7773
aS'@SethMcLaughlin1'
p7774
aS'@thegurleygirl'
p7775
aS'@slaudner:'
p7776
aS'@DonaldJTrumpJr.'
p7777
aS'@dabeard'
p7778
aS'@DonaldJTrumpJr,'
p7779
aS'@wisdomsquote:'
p7780
aS'@AccountsRS'
p7781
aS'@RickNichols3:'
p7782
aS'@DonaldJTrumpJr:'
p7783
aS'@GOOD_ggg:'
p7784
aS'@circa75sydney'
p7785
aS'@slumpcityusa:'
p7786
aS'@theHickMan33'
p7787
aS'@StarJonesEsq'
p7788
aS'@littlebytesnews'
p7789
aS'@BradANGSA:'
p7790
aS'@DavidAGoodman:'
p7791
aS'@RandyMinshew:'
p7792
aS'@KyleMcCall4:'
p7793
aS'@ldn1017:'
p7794
aS'@ErichFSchroeder'
p7795
aS'@JeriHyatt:'
p7796
aS'@Foshay504:'
p7797
aS'@trumpcasinos'
p7798
aS'@brianjames75:'
p7799
aS'@MajesticBrotha:'
p7800
aS"@JoeBiden's"
p7801
aS'@VinceMcMahon:'
p7802
aS'@Aberdeenshire'
p7803
aS'@flljeff:'
p7804
aS'@rgriesemer3:'
p7805
aS'@jasonusmc2017:'
p7806
aS'@AnastasiaRubine:'
p7807
aS'@chrisleigh604:'
p7808
aS'@highwayhopper66:'
p7809
aS'@thegroveguru:'
p7810
aS'@timessquarehero:'
p7811
aS'@NBCApprentice'
p7812
aS'@JohnSim96499126'
p7813
aS'@EmilioMasella'
p7814
aS'@LordandTaylor'
p7815
aS'@StoneZipper:'
p7816
aS'@RedEyeFNC'
p7817
aS'@DdEeSsM:'
p7818
aS'@TrumpScotland!'
p7819
aS'@ManagersDiary'
p7820
aS'@GarcesGloria:'
p7821
aS'@TrumpScotland,'
p7822
aS'@JonHuntsman"'
p7823
aS'@cripplecreek101'
p7824
aS'@planetmaurie'
p7825
aS'@BachelorFortune:'
p7826
aS'@TrumpScotland:'
p7827
aS'@Gina660:'
p7828
aS'@JonHuntsman.'
p7829
aS'@GamezFrank'
p7830
aS'@LynusCantwell:'
p7831
aS'@RustyWallace'
p7832
aS'@alixandra_k:'
p7833
aS'@Lady_Laurettina:'
p7834
aS'@jfolds:'
p7835
aS'@OConnellPostbiz:'
p7836
aS'@nenunenu:'
p7837
aS'@rickklein:'
p7838
aS"@TrumpNewYork's"
p7839
aS'@HBO'
p7840
aS'@SuperBowl'
p7841
aS'@HotelierME:'
p7842
aS'@RealMarkZuck'
p7843
aS'@jayleno)'
p7844
aS'@InsideSouthFL:'
p7845
aS'@RustinNiles'
p7846
aS'@xxjennypennyxx:'
p7847
aS'@TrumpIntRealty'
p7848
aS'@kimguilfoyle'
p7849
aS'@678b4612a62641f:'
p7850
aS'@Acustom'
p7851
aS'@spirtualhappy:'
p7852
aS'@BreitbartVideo:'
p7853
aS'@bobbybnews'
p7854
aS'@Draper33Paul:'
p7855
aS'@BretBaier.'
p7856
aS'@alvisefranz:'
p7857
aS'@BruceBeck4NY:'
p7858
aS'@Mitchell_Traver'
p7859
aS'@MARGIE352:'
p7860
aS'@gomrunner'
p7861
aS'@BretBaier:'
p7862
aS'@RedState'
p7863
aS'@AFP:'
p7864
aS'@DavidWright'
p7865
aS'@AgalarovAras'
p7866
aS'@MichaelJHill:'
p7867
aS'@nytpolitics:'
p7868
aS'@BobbyJindal'
p7869
aS'@daveyh'
p7870
aS'@GunnAndrew:'
p7871
aS'@CamaroDays:'
p7872
aS'@THESHARKTANK1:'
p7873
aS'@DurangoRick'
p7874
aS'@philip711:'
p7875
aS'@CassellsM:'
p7876
aS'@FNTheFive'
p7877
aS'@tkeller316'
p7878
aS'@TarekR:'
p7879
aS'@DrewMadeOFF:'
p7880
aS'@stjudes.'
p7881
aS'@mdamelincourt'
p7882
aS'@lbcxyz:'
p7883
aS'@NicholasBallasy'
p7884
aS'@UncleLouie42'
p7885
aS'@TWtravelnews'
p7886
aS'@ivankatrump'
p7887
aS'@D...'
p7888
aS'@GFCFrocks:'
p7889
aS'@Brooke_Burton_:'
p7890
aS'@mikescintoshow:'
p7891
aS'@SmokyJacques:'
p7892
aS'@Techn9cian1923:'
p7893
aS'@Sunflowers362:'
p7894
aS"@CondoleezzaRice's"
p7895
aS'@tripletluv11:'
p7896
aS'@RWSurferGirl'
p7897
aS'@ProjectMayhem_M:'
p7898
aS'@CNTraveler!'
p7899
aS'@felsrepublicans:'
p7900
aS'@CNTraveler:'
p7901
aS'@Dark_Red_Hair2:'
p7902
aS'@mxk0dy:'
p7903
aS'@merssem:'
p7904
aS'@MarleeMatlin'
p7905
aS'@WaApples:'
p7906
aS'@NYU'
p7907
aS'@Jmano33:'
p7908
aS'@ImSoCelebrity:'
p7909
aS'@JamersonHayes'
p7910
aS'@aak1993:'
p7911
aS'@Markhousego'
p7912
aS'@BlackAndRight'
p7913
aS'@DukeJrII'
p7914
aS'@AustinWDE7:'
p7915
aS'@GTman1988:'
p7916
aS'@JenCromartie:'
p7917
aS'@charleswhite816:'
p7918
aS'@ShotGunFloyd:'
p7919
aS'@macys'
p7920
aS'@Regis'
p7921
aS'@Davyshanks:'
p7922
aS'@whitehouse?'
p7923
aS'@suttera2:'
p7924
aS'@LindseyGrahamSC'
p7925
aS'@thegroveguru'
p7926
aS'@_xx_Alesa:'
p7927
aS'@Woodsy_gal:'
p7928
aS'@AAA_Travel'
p7929
aS'@whitehouse.'
p7930
aS'@jojo81466'
p7931
aS'@iamapatsfan:'
p7932
aS'@MadG0d:'
p7933
aS'@TheUSALifeStyle:'
p7934
aS'@pwnza:'
p7935
aS'@skqush:'
p7936
aS'@TweesTweets:'
p7937
aS'@TrumpNationalNY:'
p7938
aS'@WTSP10News'
p7939
aS'@dynamicwil:'
p7940
aS'@Cigartainer:'
p7941
aS'@L_Jackson_78:'
p7942
aS'@bobby2700'
p7943
aS'@TheEconomist'
p7944
aS'@lisarinna'
p7945
aS'@perkins_holly'
p7946
aS'@StephenBaldwin7:'
p7947
aS'@linclonone'
p7948
aS"@Ed_Klein's"
p7949
aS'@trapman2000:'
p7950
aS'@ThePatriot143'
p7951
aS'@Jaybags9:'
p7952
aS'@rosannascotto'
p7953
aS'@KobayashiNick:'
p7954
aS'@seankesser:'
p7955
aS'@James_Taylor78:'
p7956
aS'@MasterCard'
p7957
aS'@Tom38Ts'
p7958
aS'@jacob_mastro'
p7959
aS'@dallasmavs'
p7960
aS'@pdattolo79:'
p7961
aS'@MichaelRCaputo:'
p7962
aS'@natalieccook'
p7963
aS'@FoxNewsInsider'
p7964
aS'@brianstoya:'
p7965
aS'@millersandra88:'
p7966
aS'@toneantone96:'
p7967
aS'@dashinglis:'
p7968
aS'@JamieMckerron:'
p7969
aS'@GarryGreiner:'
p7970
aS'@jjblasvegas:'
p7971
aS'@RICOHWomensBrit'
p7972
aS'@PDugan9521:'
p7973
aS'@peterienhio'
p7974
aS'@AmandaTMiller:'
p7975
aS'@amazechristianl:'
p7976
aS'@fullybop:'
p7977
aS'@BeTheMatch'
p7978
aS'@HawksBaseball7:'
p7979
aS'@TheNewMrsTim:'
p7980
aS'@PageSix'
p7981
aS'@msnbc.'
p7982
aS'@ChrisCuomo'
p7983
aS'@21Club,'
p7984
aS'@Josh_Dobbs:'
p7985
aS'@pbstwo'
p7986
aS'@MaxVayner'
p7987
aS'@edshow'
p7988
aS'@JaySekulow:'
p7989
aS'@Vinnie_109:'
p7990
aS'@thequote:'
p7991
aS'@autism_no_more:'
p7992
aS'@KeepCalmBC:'
p7993
aS'@ColetonEmr'
p7994
aS'@Makingpeoplemad:'
p7995
aS'@__HotDawgs'
p7996
aS'@CashMoneyBonas:'
p7997
aS'@APCampaign:Trump'
p7998
aS'@WalterWhfla:'
p7999
aS'@AmyMek'
p8000
aS'@Pepper4366'
p8001
aS'@AdamsGolf'
p8002
aS'@PiersMorgan.'
p8003
aS'@BrownsMakeMeUgh:'
p8004
aS'@gen_yvette'
p8005
aS'@JennyMcCarthy,'
p8006
aS'@SertaMattresses.'
p8007
aS'@MyStateTalk:'
p8008
aS'@KimRichards11'
p8009
aS'@megan_lumetta:'
p8010
aS'@Bass705:'
p8011
aS'@MikeDemkiw'
p8012
aS'@WillAA99:'
p8013
aS'@lovevictoria'
p8014
aS'@diverojalv:'
p8015
aS'@GMA'
p8016
aS'@MichaelShmikel:'
p8017
aS'@pepsidaisy:'
p8018
aS'@The'
p8019
aS'@Letterman'
p8020
aS'@smoss319:'
p8021
aS'@SCOTTMALOUFF:'
p8022
aS'@sierkmmm:'
p8023
aS'@CindyCuller2'
p8024
aS'@TheKudlowReport'
p8025
aS"@PiersMorgan's"
p8026
aS'@DreadPhil1'
p8027
aS'@OfficialMelB'
p8028
aS'@JorgeQB22:'
p8029
aS'@Versongoetrix:'
p8030
aS'@WCMartzOfficial'
p8031
aS'@ellentime1:'
p8032
aS'@digitalpadawan:'
p8033
aS'@AlexSalmond"'
p8034
aS'@ritafancher1:'
p8035
aS'@MissMakeupMogul:'
p8036
aS'@KathViner'
p8037
aS'@espngolf'
p8038
aS'@RonNussbeck'
p8039
aS'@HRGuySerchia:'
p8040
aS'@WilliamLive5'
p8041
aS'@dogs4peace'
p8042
aS'@tojo413:'
p8043
aS'@Going4theGreen'
p8044
aS'@TinaPiper:'
p8045
aS'@domrob5244:'
p8046
aS'@Tokodi1'
p8047
aS'@mrmikelawlor'
p8048
aS'@Chris_Owens1213:'
p8049
aS'@pennjille'
p8050
aS'@volmeeezy6'
p8051
aS'@DalaiLama'
p8052
aS'@thomas_tullos10:'
p8053
aS'@realdonaldTrump'
p8054
aS'@DannyZuk'
p8055
aS'@mediaite'
p8056
aS'@williamonlyrent:'
p8057
aS'@dualheadedeagle'
p8058
aS'@MatthewLadzik'
p8059
aS'@Lantern153:'
p8060
aS'@WSJPolitics'
p8061
aS'@Andigriffin:'
p8062
aS'@psu_rebot'
p8063
aS'@LouistheXVI99:'
p8064
aS'@BooG690:'
p8065
aS'@AlexPascal123:'
p8066
aS'@WalidShoebat:'
p8067
aS'@mchandlerjones'
p8068
aS'@oliviaculpo'
p8069
aS'@CPACnews.'
p8070
aS'@BobCaldwellCHS"'
p8071
aS'@avedders:'
p8072
aS'@ThomasARoberts'
p8073
aS'@AZDaniel27:'
p8074
aS'@alorcafesocial:'
p8075
aS'@AmieeSurratt:'
p8076
aS'@krokid2012:'
p8077
aS'@willgalloway_:'
p8078
aS'@Jackshallis:'
p8079
aS'@GoToMoneyMan'
p8080
aS'@sundance0272:'
p8081
aS'@lisa_zeee:'
p8082
aS'@vincedelisi'
p8083
aS'@seanheilweil:'
p8084
aS'@kathomas212!'
p8085
aS'@timgerzabek:'
p8086
aS'@JudgeJeanine:'
p8087
aS'@HL3tweets:'
p8088
aS'@4everSharkie:'
p8089
aS'@jonkarl,'
p8090
aS'@tomko13:'
p8091
aS'@smithg_:'
p8092
aS'@warrencasselljr:'
p8093
aS'@KingwoodNews'
p8094
aS'@ConMonitorNews'
p8095
aS'@naughtoriousBIG:'
p8096
aS'@MCat7189X:'
p8097
aS'@Gunny44:'
p8098
aS'@eric_alon'
p8099
aS'@Maurice_is_Cool:'
p8100
aS'@JUSTTHETRUTHTV:'
p8101
aS'@GlobalGolfPost:'
p8102
aS'@ChrissstinaC:'
p8103
aS'@garrendj'
p8104
aS'@happinesscoach:'
p8105
aS'@5reedz:'
p8106
aS'@jelliottkelley:'
p8107
aS'@NBCFanIt:'
p8108
aS'@TrumpNationalCN'
p8109
aS'@CpacDean:'
p8110
aS'@michaelgferrara'
p8111
aS'@eva_rider:'
p8112
aS'@JenSwanCollins:'
p8113
aS'@AppSame'
p8114
aS'@mgmacdon:'
p8115
aS'@EricT...'
p8116
aS'@Rosie.'
p8117
aS'@NickSalman_RAK:'
p8118
aS'@sashamajerovsky:'
p8119
aS'@DCnumerology'
p8120
aS'@ronbrown1970:'
p8121
aS'@ZGreekDWstyle'
p8122
aS'@JohnLegere.'
p8123
aS'@CNBC'
p8124
aS'@DuncanBannatyne:'
p8125
aS'@SteveRickettsSP:'
p8126
aS'@usplaymoney'
p8127
aS'@Angelkakes:'
p8128
aS'@pdigiore1:'
p8129
aS'@inshapp776:'
p8130
aS'@huffingtonpost.'
p8131
aS'@tdudz5:'
p8132
aS'@MagicJeff:'
p8133
aS'@AnthElliott:'
p8134
aS'@benedwards55'
p8135
aS'@JATBWIFEE'
p8136
aS'@RyanSeven'
p8137
aS'@HulkHogan'
p8138
aS'@TheSisko:'
p8139
aS'@tftamt:'
p8140
aS'@jeanne_mazzotta:'
p8141
aS'@ScotParl'
p8142
aS'@RossMcCutchen:'
p8143
aS'@MadeleineBlaze'
p8144
aS'@DurangoRick:'
p8145
aS'@JWCesare'
p8146
aS'@EnigmaCEO:'
p8147
aS'@mcuban!"'
p8148
aS'@IanArnold:'
p8149
aS'@RealLeslies'
p8150
aS'@Morning_Joe:'
p8151
aS'@RealClearNews'
p8152
aS'@laurasgoldman:'
p8153
aS'@CarltonCountry:'
p8154
aS"@FishbowlDC's"
p8155
aS'@RealMetman:'
p8156
aS'@Linda_McMahon'
p8157
aS'@NBCInvestigates'
p8158
aS'@Military_News)'
p8159
aS'@TMZ'
p8160
aS'@Packerlegends'
p8161
aS'@DCoolDog:'
p8162
aS'@Sheriapple:'
p8163
aS'@NewYorkObserver'
p8164
aS'@washtimes:'
p8165
aS'@aMANinMANHATTAN:'
p8166
aS'@jorgeramosnews'
p8167
aS'@rubendiazjr:'
p8168
aS'@Atom_Murray:'
p8169
aS'@canoetravel:'
p8170
aS'@_thebeatonpath:'
p8171
aS'@AaronMcAllorum'
p8172
aS'@Diplomt:'
p8173
aS'@crpietschmann:'
p8174
aS'@Dayanamendoza'
p8175
aS'@photomateme:'
p8176
aS'@foxnewslatino:'
p8177
aS'@chrislhayes'
p8178
aS'@juliar1206:'
p8179
aS'@AntonVonClouse'
p8180
aS'@WashTimes:'
p8181
aS'@_MHall:'
p8182
aS"@jack_welch's"
p8183
aS'@kerrygold1914:'
p8184
aS'@ShadeTreeGambla:'
p8185
aS'@WeeHen82'
p8186
aS'@seniorpgachamp'
p8187
aS'@BarrieLouise:'
p8188
aS'@IronMan1021:'
p8189
aS'@Arful1dodger:'
p8190
aS'@robin1260:'
p8191
aS'@SarahPalinUSA"'
p8192
aS'@LoyolaChicago!'
p8193
aS'@patzann66'
p8194
aS'@Reuters:'
p8195
aS'@EdandBev:'
p8196
aS'@K3LCI:'
p8197
aS'@redcrossokc'
p8198
aS'@Chris_D2:'
p8199
aS'@BillKristol.'
p8200
aS'@Boeing'
p8201
aS'@isabelsimon80:'
p8202
aS'@NinjaDomoEsq:'
p8203
aS'@LadyJelenaxoxo'
p8204
aS'@TtsincWard:'
p8205
aS'@ElvisDuran'
p8206
aS'@Leigh26Heather:'
p8207
aS'@KatrinaDeVita'
p8208
aS'@BillageT1'
p8209
aS'@TutandTut'
p8210
aS'@GloriaAllred,'
p8211
aS'@amstaffbru'
p8212
aS'@nbc--Celebrity'
p8213
aS'@arcuate'
p8214
aS"@DanAmira's"
p8215
aS'@LCBeaudoin'
p8216
aS'@bbeltku:'
p8217
aS'@am970TheAnswer:'
p8218
aS'@PGA_com'
p8219
aS'@AlbertoSidney:'
p8220
aS'@vagpoop:'
p8221
aS'@tgainesgirl:'
p8222
aS'@bretmichaels'
p8223
aS'@itsjenwbitches'
p8224
aS'@WFFSA'
p8225
aS'@koos32'
p8226
aS'@RickClement'
p8227
aS'@TeaTra...'
p8228
aS'@drewcarter49:'
p8229
aS'@CNBCClosingBell'
p8230
aS'@grtblankenship:'
p8231
aS'@Brandon_Grip'
p8232
aS'@TrumpDoral'
p8233
aS'@jamiesawicz:'
p8234
aS'@seanmerc:'
p8235
aS'@adamkellydeals:'
p8236
aS'@WalkerLaflin'
p8237
aS'@browardpolitics:'
p8238
aS'@Tyler_BurkeCRE'
p8239
aS'@1ns1de_J9b:'
p8240
aS'@billmaher?'
p8241
aS'@danowiggins:'
p8242
aS'@ASenaPhotograph'
p8243
aS'@foxnewspolitics'
p8244
aS'@LauraAbokhair'
p8245
aS'@therightnewz:'
p8246
aS'@cmo626'
p8247
aS'@RonCanova'
p8248
aS'@lolita_nyc:'
p8249
aS'@ABC'
p8250
aS'@DETAILS:'
p8251
aS'@EE'
p8252
aS'@karina_kemala'
p8253
aS'@CircleofDocs'
p8254
aS'@WilliamCarneyII:'
p8255
aS'@MarkAGiarrusso:'
p8256
aS'@STL_Blonde:'
p8257
aS'@chucktodd,'
p8258
aS'@ScottWalker'
p8259
aS'@realDonaldtrump'
p8260
aS'@rnull65:'
p8261
aS'@jwkeen:'
p8262
aS'@J_SAB_:'
p8263
aS'@HawksFanDenver:'
p8264
aS'@MVPSocialMedia:'
p8265
aS"@MLB's"
p8266
aS'@MGA1897'
p8267
aS'@1996Goldberg'
p8268
aS'@NaghmehAbedini'
p8269
aS'@jeffphilbin'
p8270
aS'@SirMiestro:'
p8271
aS'@andypoo19'
p8272
aS'@chuckiscool'
p8273
aS'@HalfMoon4Life'
p8274
aS'@GaryVanSickle'
p8275
aS'@ChooseChicagoMx'
p8276
aS'@RickyRicardo223:'
p8277
aS'@dexterpugh'
p8278
aS'@JoeSantos5150:'
p8279
aS'@pmdino007:'
p8280
aS'@JNOBOA23:'
p8281
aS'@DinoPetrongolo:'
p8282
aS'@APinv:'
p8283
aS'@johnmarzan'
p8284
aS'@oversplayer:'
p8285
aS'@MitchEPerry:'
p8286
aS'@AlexandraCMauro'
p8287
aS"@SarahPalinUSA's"
p8288
aS'@HGswiney:'
p8289
aS'@RealCoachHodge:'
p8290
aS'@TraceAdkins'
p8291
aS'@KWQCDanielle'
p8292
aS'@BritishGQ'
p8293
aS'@karefor5'
p8294
aS'@tfore4'
p8295
aS'@ericgaydos:'
p8296
aS'@MaryChayko'
p8297
aS'@Queenruler:'
p8298
aS'@TLoUTEngineer'
p8299
aS"@trumpcollection's"
p8300
aS'@garyplayer:'
p8301
aS'@tweet2u2'
p8302
aS'@1Man2GuvnorsNYC:'
p8303
aS'@troubic'
p8304
aS'@anastasiasoula7:'
p8305
aS'@JCOTheAmerican:'
p8306
aS'@TheRealCamSand:'
p8307
aS'@colleencpa'
p8308
aS'@foxbusiness!'
p8309
aS'@1MuskyHunter:'
p8310
aS'@thesween_bean'
p8311
aS'@meade1214'
p8312
aS'@OhBootsy:'
p8313
aS'@trumppanama'
p8314
aS'@DurantRandy'
p8315
aS'@SammartinoBruno:'
p8316
aS"@RealDonaldTrump's"
p8317
aS'@Hurry2Live'
p8318
aS'@zglittergirl:'
p8319
aS'@mondrian70'
p8320
aS'@Morning_Joe'
p8321
aS'@Beliefheals'
p8322
aS'@Keeganbcall:'
p8323
aS'@strommer07'
p8324
aS'@FransiscoMlaza:'
p8325
aS'@GOP'
p8326
aS'@Tradingforex24:'
p8327
aS'@ghostlyprep:'
p8328
aS'@DRUDGE--and'
p8329
aS'@iamgerg:'
p8330
aS'@FSUSteve:'
p8331
aS'@opensezme:'
p8332
aS'@TBN"'
p8333
aS'@TrumpNH:'
p8334
aS'@markg0077'
p8335
aS'@FSMtweet:'
p8336
aS'@RunningBearz:'
p8337
aS'@val_wonders:'
p8338
aS'@HoustonGunn'
p8339
aS'@aliayacovlef'
p8340
aS'@Boarcane:'
p8341
aS'@tinaclean'
p8342
aS'@allanschwartz1'
p8343
aS'@pegson:'
p8344
aS'@MagicJohnsonFDN?'
p8345
aS'@tanjas_world'
p8346
aS'@sAygO_P'
p8347
aS'@ASerrate:'
p8348
aS'@SteveMTalk'
p8349
aS'@thegarybusey.'
p8350
aS'@EcatXerxes'
p8351
aS'@TheRealBlakeHo:'
p8352
aS'@alexskoog'
p8353
aS'@kpdelbridge'
p8354
aS'@ThisNBAgirl:'
p8355
aS'@shred_session'
p8356
aS'@KatrinaCampins'
p8357
aS'@danieljshaw'
p8358
aS'@wjrradio'
p8359
aS'@WashTimes'
p8360
aS'@Jenism101:'
p8361
aS'@Dark_Red_Hair:'
p8362
aS'@tan123'
p8363
aS'@inthelooptv:'
p8364
aS'@BigBobScott'
p8365
aS'@LoveandFate:'
p8366
aS'@ctrenwith:'
p8367
aS'@MenaceSocietyUT'
p8368
aS'@AdityaTaday'
p8369
aS'@squawkCNBC'
p8370
aS'@SunnyJL52'
p8371
aS'@VinceMcMahon?'
p8372
aS'@matt_grazz'
p8373
aS'@rydercup'
p8374
aS'@Yazzeruk'
p8375
aS'@TrumpsGucciGirl:'
p8376
aS'@irishabroad'
p8377
aS'@konk65:'
p8378
aS"@HillaryClinton's"
p8379
aS'@DavisCPAGroup'
p8380
aS'@ToddThomson12:'
p8381
aS'@Jonzy1523'
p8382
aS'@Jesus_Mohammad:'
p8383
aS'@Gene_Valin'
p8384
aS'@KenBlalock:'
p8385
aS'@Jkoch19Koch:'
p8386
aS'@denhg:'
p8387
aS'@JustMeNoahB:'
p8388
aS'@andfor1:'
p8389
aS'@BeBeSXM:'
p8390
aS'@MrsDFRizzo7'
p8391
aS'@CherylGravino:'
p8392
aS'@ThomasLKnightJr:'
p8393
aS'@DawnieDeee'
p8394
aS'@jake0reilly:'
p8395
aS'@golfhunter:'
p8396
aS"@netanyahu's"
p8397
aS'@jmac188:'
p8398
aS'@995mu:'
p8399
aS'@celebapprentice'
p8400
aS'@BrandenRoderick'
p8401
aS'@accesshollywood:'
p8402
aS'@Triggerracing'
p8403
aS"@Macy's,"
p8404
aS'@Teresa_Giudice?'
p8405
aS'@helendhughes'
p8406
aS'@TrumpWaikiki,'
p8407
aS'@FilmRod83:'
p8408
aS'@Billd111'
p8409
aS'@LauraAbokhair:'
p8410
aS'@akers_joshua'
p8411
aS'@DaphneHaven:'
p8412
aS'@donandroma'
p8413
aS'@TrumpWaikiki'
p8414
aS'@jacobmathews:'
p8415
aS'@NickFronduto:'
p8416
aS'@worldnetdaily:'
p8417
aS'@EdTibbetts:'
p8418
aS'@NewDay'
p8419
aS'@NickTryIt'
p8420
aS'@AAszkler:'
p8421
aS'@bostonpolice'
p8422
aS'@Villesportslaw:'
p8423
aS'@YouthPastorDarr'
p8424
aS'@mcgranejt:'
p8425
aS'@saintanselm'
p8426
aS'@theJoannaRyan:'
p8427
aS"@TrumpDoral's"
p8428
aS'@JGibson271985:'
p8429
aS'@DoreenHunns:'
p8430
aS'@hopewellcody'
p8431
aS'@MittRomney?"'
p8432
aS'@EricTrump'
p8433
aS'@musedSUCCESS:'
p8434
aS'@PopularPosters:'
p8435
aS'@HistoryInPics:'
p8436
aS'@paulkellysr'
p8437
aS'@katygolf:'
p8438
aS'@jleec'
p8439
aS'@baeck'
p8440
aS'@REAPEROFTRUTH:'
p8441
aS'@KingSchnabel:'
p8442
aS'@MacFaddenRyan'
p8443
aS'@tonyfernandes'
p8444
aS'@EntourageUK'
p8445
aS'@politico,'
p8446
aS'@Nicole52008:'
p8447
aS'@siddiquehash'
p8448
aS'@bradwyman'
p8449
aS'@SenatorCardin'
p8450
aS'@politico:'
p8451
aS'@Clare_OC'
p8452
aS'@aeronmalone'
p8453
aS'@pastorshanewest'
p8454
aS'@hardball_chris"'
p8455
aS"@VPBiden's"
p8456
aS'@ichicagoscott'
p8457
aS'@plscpapa:'
p8458
aS'@MissUSA2005'
p8459
aS'@tommo1903'
p8460
aS'@LPGA'
p8461
aS'@BrendaRigney:'
p8462
aS'@Raven_kittycat'
p8463
aS'@Lexi'
p8464
aS'@mrsabh:'
p8465
aS'@LeMrMike'
p8466
aS'@gwenstefani'
p8467
aS'@stevesms1960:'
p8468
aS'@BuzzFeed'
p8469
a.