(lp1
S'@claudiajordan'
p2
aS"@AlexSalmond's"
p3
aS"@MarkHalperin's"
p4
aS'@jennyfromnexus'
p5
aS'@theviewtv--by'
p6
aS'@DaveBratVA7th'
p7
aS'@blazey53'
p8
aS'@JohnCena'
p9
aS'@MdAhGOD'
p10
aS'@WallStreetGreek'
p11
aS'@mckaycoppins'
p12
aS'@TigerWoods'
p13
aS'@BillClinton'
p14
aS'@therealTMac11'
p15
aS'@ibleedcoffee'
p16
aS'@theviewtv'
p17
aS'@apprenticenbc'
p18
aS'@SRQRepublicans'
p19
aS'@rosannascotto'
p20
aS'@rattiackackack'
p21
aS'@RasmussenPoll'
p22
aS'@GauravK725'
p23
aS'@mcuban'
p24
aS'@PolitiBunny'
p25
aS'@CoachClintSwan'
p26
aS'@golflessondubai'
p27
aS'@bretbaier'
p28
aS'@HatchetWounds'
p29
aS'@WeWantMitt2016'
p30
aS'@Judare'
p31
aS'@tuckercarlson'
p32
aS'@MittRomney'
p33
aS'@Joan_Rivers'
p34
aS'@Macys--try'
p35
aS'@CNNPolitics'
p36
aS'@ArcturusRex4'
p37
aS'@spurs'
p38
aS"@AnnCoulter's"
p39
aS'@Lexi_Michaels'
p40
aS'@'
aS'@marc_soler1'
p41
aS'@CardinalDolan'
p42
aS'@rushlimbaugh'
p43
aS'@gerfingerpoken'
p44
aS'@NewYorkPost'
p45
aS'@nydailynews'
p46
aS'@Broncos'
p47
aS'@hannityshow'
p48
aS'@Mets'
p49
aS'@Lakers'
p50
aS'@TomPuiseux'
p51
aS'@autism'
p52
aS'@AnnAmplf'
p53
aS"@CNN's"
p54
aS'@BrandenRoderick'
p55
aS'@therealtommydel'
p56
aS"@hardball_chris'"
p57
aS'@GregAbbott_TX'
p58
aS'@spsmith78'
p59
aS'@matthew_cruz'
p60
aS'@SteveSGoddard'
p61
aS'@CPACnews'
p62
aS"@FoxNews'"
p63
aS'@jacob_mastro'
p64
aS'@washcaps'
p65
aS'@camarrone'
p66
aS'@arsenioOFFICIAL'
p67
aS'@BetteMidler'
p68
aS'@FoxBusiness'
p69
aS'@BashirLive'
p70
aS'@carlosbeltran15'
p71
aS'@Triggerracing'
p72
aS'@MaxBaucus'
p73
aS'@johnboehner'
p74
aS'@TweetingAutism'
p75
aS'@DineshDSouza'
p76
aS'@MikeAndMike'
p77
aS'@Sappy4142'
p78
aS'@ErraticSLK'
p79
aS'@OMGguy18'
p80
aS'@BarriMedia'
p81
aS'@DailyCaller'
p82
aS'@richardroeper'
p83
aS'@go_onrob'
p84
aS'@ScottKWalker'
p85
aS"@StephenBaldwin7's"
p86
aS'@MikeRaj7'
p87
aS'@Mbathani_Inc'
p88
aS'@nikkio'
p89
aS"@ralphreed's"
p90
aS'@G_Harwood'
p91
aS'@WesleyCooler3'
p92
aS'@JesseStroup'
p93
aS'@VanityFair'
p94
aS'@reince'
p95
aS'@ArsenioOfficial'
p96
aS'@jacobmathews'
p97
aS'@LooneyTunes002'
p98
aS'@GovernorSununu'
p99
aS'@edshow'
p100
aS'@yankees'
p101
aS'@FamousUmair'
p102
aS'@WWEfan123444'
p103
aS"@DineshDSouza's"
p104
aS'@RalphGilles'
p105
aS'@newtgingrich'
p106
aS'@TimeWarner'
p107
aS'@Israel'
p108
aS'@georgewillf'
p109
aS'@RassilonsArmy'
p110
aS'@BreitbartNews'
p111
aS'@RealDougClark'
p112
aS'@politico'
p113
aS'@NYMag'
p114
aS'@seketa77'
p115
aS'@RonWyden'
p116
aS'@The_Masters'
p117
aS'@kingmortimer'
p118
aS'@umman91'
p119
aS'@MarlboroStan'
p120
aS"@Israel's"
p121
aS'@kleckhardt'
p122
aS'@EvaLongoria'
p123
aS'@AmSpec'
p124
aS'@DanScavino'
p125
aS'@RonnieWNichol'
p126
aS'@OMAROSA'
p127
aS'@AnthonyWeiner'
p128
aS'@MasterBaxter8'
p129
aS'@BrianSpurr'
p130
aS'@TTH7'
p131
aS'@bluemangroup'
p132
aS'@toddulu'
p133
aS'@EmilyMiller'
p134
aS"@AndrewBreitbart's"
p135
aS'@katyperry'
p136
aS'@WeGotEd'
p137
aS"@mcuban's"
p138
aS'@JoeBiden'
p139
aS'@danawhite'
p140
aS'@PaulaDuvall2'
p141
aS'@gen_yvette'
p142
aS"@williebosshog's"
p143
aS'@JobCreatorsUSA'
p144
aS'@msnbc'
p145
aS"@RepPaulRyan's"
p146
aS'@Ray'
p147
aS'@escobedoantonio'
p148
aS'@bubbawatson'
p149
aS'@Dardonyc16'
p150
aS'@TheJoeOsborne'
p151
aS'@TeamBobbyEwing'
p152
aS'@_KatherineWebb'
p153
aS'@tbrandy100'
p154
aS'@JPappasPR'
p155
aS'@omegaphoenix068'
p156
aS'@mystikangel'
p157
aS'@LuckyGuyPlay'
p158
aS'@BillsMafia'
p159
aS'@handyrachet'
p160
aS'@fundanything'
p161
aS"@antbaxter's"
p162
aS'@CoachAbda'
p163
aS'@VerizonLGg2'
p164
aS'@LibertyUniversity--such'
p165
aS'@Chrysler'
p166
aS'@BrentLudington'
p167
aS'@DJLoopsFruit'
p168
aS'@colonopenbrakit'
p169
aS'@ilpostio'
p170
aS'@The'
p171
aS'@SimpsonCollege'
p172
aS"@seanhannity's"
p173
aS'@jaypeemoney'
p174
aS'@HulkHogan--he'
p175
aS'@Y0itsbeau'
p176
aS"@RickSantorum's"
p177
aS'@TMobile'
p178
aS'@gastronome2'
p179
aS'@johnrich'
p180
aS'@aberdeedshire'
p181
aS'@slainsview'
p182
aS'@nfl'
p183
aS'@StJude'
p184
aS'@PennJillette'
p185
aS"@GretchenCarlson's"
p186
aS'@BMP_Music_Event'
p187
aS'@McLaughlinGroup'
p188
aS'@TheSlyStallone'
p189
aS'@Pollysdaughter'
p190
aS'@CatoInstitute'
p191
aS'@ussoccer'
p192
aS'@datelinenbc'
p193
aS'@jameshohmann'
p194
aS'@DreadPhil1'
p195
aS'@OfficialMelB'
p196
aS'@fedupwithgovern'
p197
aS'@myhealthcoach1'
p198
aS'@Eugene_Robinson'
p199
aS'@Aa94Javy'
p200
aS'@gallupnews'
p201
aS'@AGSchneiderman'
p202
aS'@Boura15'
p203
aS'@seanhannity'
p204
aS'@kingdelrosario'
p205
aS'@homeedmam'
p206
aS'@TheBigAStabile'
p207
aS'@WCMartzOfficial'
p208
aS'@conedison'
p209
aS'@CDaeda'
p210
aS'@rupertmurdoch'
p211
aS'@princeetornam'
p212
aS'@ehasselbeck'
p213
aS'@jry227'
p214
aS'@BluePrintBullie'
p215
aS'@gramma421'
p216
aS'@MickyArison'
p217
aS'@T-Mobile'
p218
aS'@ukn96'
p219
aS"@JerrySeinfeld's"
p220
aS'@PaulRyanVP'
p221
aS'@tombrokow'
p222
aS'@AROD'
p223
aS'@jrondatampier'
p224
aS'@adamjackson73'
p225
aS'@ChristianVaux'
p226
aS'@RobAstorino'
p227
aS'@NikWallenda'
p228
aS'@Fordette12'
p229
aS'@dallasmavs'
p230
aS'@SportsWalnuts'
p231
aS'@NolteNC'
p232
aS'@DerekJeter'
p233
aS'@polotodd804'
p234
aS'@AlfiraAzzahra'
p235
aS'@MikeBloomberg'
p236
aS'@dogs4peace'
p237
aS'@vcross8'
p238
aS"@FishbowlDC's"
p239
aS'@womenzbinder'
p240
aS'@BillyGraham'
p241
aS'@thedailybeast'
p242
aS"@history's"
p243
aS'@TheFix'
p244
aS'@stass13'
p245
aS'@BrownsMakeMeUgh'
p246
aS'@MeghanFaheyy'
p247
aS'@Cadillac'
p248
aS'@dabg3241'
p249
aS'@blakemharris'
p250
aS'@KellyandMichael'
p251
aS'@joelalbright1'
p252
aS'@BravoAndy'
p253
aS'@jonkarl-I'
p254
aS'@noturbine'
p255
aS'@Taylor_McBath'
p256
aS"@washingtonpost's"
p257
aS'@L100RAN'
p258
aS'@sethmeyers'
p259
aS'@JusticeRoberts'
p260
aS"@Lord_Sugar--You're"
p261
aS'@CharlieRymerGC'
p262
aS'@evaemery'
p263
aS'@LilJon'
p264
aS'@WWE'
p265
aS'@taylorswift13'
p266
aS'@dalasner'
p267
aS"@TigerWoods'"
p268
aS'@lisalampanelli'
p269
aS'@johan_jwc'
p270
aS'@CraigHeff'
p271
aS'@ThisWeekABC'
p272
aS'@dylawn420'
p273
aS'@kalevans'
p274
aS'@alan_ashe'
p275
aS'@MayorBloomberg'
p276
aS'@sendit40'
p277
aS"@CondoleezzaRice's"
p278
aS'@crushthespirit'
p279
aS'@DavidGordonJr'
p280
aS'@marioraez1'
p281
aS'@MSNBC'
p282
aS'@SwedeGee'
p283
aS'@FLGovScott'
p284
aS'@CreelKen'
p285
aS'@blazo7'
p286
aS'@stretch33701'
p287
aS'@stu120'
p288
aS'@NicolleDWallace'
p289
aS'@TheGrumpyHusky'
p290
aS'@JonHuntsman'
p291
aS'@lolojones'
p292
aS'@REPWEINER'
p293
aS'@Anon_Farmer'
p294
aS'@BretBaier'
p295
aS'@chrislhayes'
p296
aS'@theBrianGentry'
p297
aS'@MariaBartiromo'
p298
aS'@nyjets'
p299
aS'@IowaGOP'
p300
aS'@mboyle1'
p301
aS'@dcolon2112'
p302
aS'@mjobrey27'
p303
aS'@mchandlerjones'
p304
aS'@HollySandersGC'
p305
aS'@chicagotribune'
p306
aS'@MichaelPhelps'
p307
aS'@carmeloanthony'
p308
aS'@tubby511'
p309
aS'@PBS'
p310
aS'@MannaaEyad'
p311
aS'@ThomasARoberts'
p312
aS'@pjpaton'
p313
aS'@realmissnvusa'
p314
aS'@PeaceLibLady'
p315
aS'@suereformer'
p316
aS'@VinceMcMahon'
p317
aS'@SwanRose2013'
p318
aS'@RogerJStoneJr'
p319
aS'@JackVoices'
p320
aS'@moonorion'
p321
aS'@penguin_rob'
p322
aS'@SaakashviliM'
p323
aS'@NRO'
p324
aS'@c_hanson800'
p325
aS'@NRA'
p326
aS'@Cgroll33'
p327
aS'@JohnRiversToo'
p328
aS'@TheTinaBeast'
p329
aS'@NJunger_19'
p330
aS'@ZagatChicago'
p331
aS'@DenZen'
p332
aS'@PierceCorey'
p333
aS'@DavidBougs'
p334
aS'@Miss'
p335
aS'@mikepassmore'
p336
aS'@DanaPerino'
p337
aS'@astros'
p338
aS'@bretmichaels'
p339
aS'@arsenioofficial'
p340
aS'@kennedy_mac'
p341
aS'@SusieBeatrice1'
p342
aS'@Chuckdhere'
p343
aS'@tanjas_world'
p344
aS'@DavidShuster'
p345
aS'@grouponegav'
p346
aS'@maggiepolitico'
p347
aS'@CondeNastCorp'
p348
aS'@thenyrangers'
p349
aS'@GinaCHaley'
p350
aS'@Teerellz_95'
p351
aS'@nyknicks'
p352
aS'@deesnider'
p353
aS'@PhilipMorrow'
p354
aS'@AndyBarovick'
p355
aS'@LukewSavage'
p356
aS'@periscopeco'
p357
aS'@MissUSA'
p358
aS'@MittRomnney'
p359
aS'@VP'
p360
aS'@Univision'
p361
aS'@spence_derek'
p362
aS'@okcthunder'
p363
aS'@MaxVayner'
p364
aS'@The_Joey'
p365
aS'@nstegm'
p366
aS'@UnitedContractF'
p367
aS'@joeplaysdrums'
p368
aS'@ChrisRuddyNMX'
p369
aS'@pennjillette'
p370
aS'@bnbooks'
p371
aS'@InaMaziarcz'
p372
aS'@BBPACK'
p373
aS'@autismspeaks'
p374
aS'@Hillary'
p375
aS'@rihanna'
p376
aS'@JonasBrothers'
p377
aS"@piersmorgan's"
p378
aS'@higginsane'
p379
aS'@NBCBlacklist'
p380
aS'@ron_fournier'
p381
aS'@Eamyoncanoe'
p382
aS'@oldschoolRUSH'
p383
aS'@Official1MCD'
p384
aS'@Howard2Lloyd'
p385
aS'@sagethelaxbro'
p386
aS'@beckyejiogu'
p387
aS'@alikilmartin'
p388
aS'@LisaRinna'
p389
aS'@davidmaraniss'
p390
aS'@charlierose'
p391
aS'@GabiRyan1990'
p392
aS'@rodmonium91'
p393
aS'@RealDonalDrumpf'
p394
aS'@SamCadora'
p395
aS'@DonnyDeutsch'
p396
aS'@caaataclysm'
p397
aS'@NFL'
p398
aS'@Lord_Sugar'
p399
aS'@BuzzFeed'
p400
aS'@LibertyU'
p401
aS'@TigerWoods-hits'
p402
aS'@VincentYanni'
p403
aS'@loveandgarbage'
p404
aS'@newyorktimes'
p405
aS'@leeboggs'
p406
aS'@davidaxelrod'
p407
aS'@jamezypell'
p408
aS'@LonghornHomer'
p409
aS'@krauthammer'
p410
aS'@markus_42'
p411
aS'@woodyjohnson4'
p412
aS'@ClassicEd'
p413
aS'@CNBC'
p414
aS'@SteveCrisafulli'
p415
aS'@MELANIATRUMP-'
p416
aS'@ChuckTodd'
p417
aS'@KennethHazlett'
p418
aS"@BillyGraham's"
p419
aS'@DanilluHermman'
p420
aS'@jack_welch'
p421
aS'@SNFonNBC'
p422
aS'@sonnset2'
p423
aS'@TripleH'
p424
aS'@HoppMar'
p425
aS'@lancearmstrong'
p426
aS'@cherrie_stevens'
p427
aS'@SabrinaSiddiqui'
p428
aS'@AndreasBoos'
p429
aS'@Ehab_Eassa'
p430
aS"@THEGaryBusey's"
p431
aS'@WebbSimpson1'
p432
aS'@julesmattsson'
p433
aS'@leezeldin'
p434
aS'@BollingsBalls'
p435
aS'@SkiingElvis'
p436
aS'@yewkalaylee'
p437
aS'@oparinde'
p438
aS'@moflatley'
p439
aS'@GatewayPundit'
p440
aS'@sethmeyers21'
p441
aS'@TimTebow'
p442
aS'@JeremiahWright'
p443
aS'@lovevictoria'
p444
aS'@SI_PeterKing'
p445
aS'@TraceAdkins'
p446
aS'@GerhardM_com'
p447
aS'@SpeakerBoehner'
p448
aS'@ThulisaKanzi'
p449
aS'@mackette52'
p450
aS'@pbanura'
p451
aS'@muhammadali'
p452
aS'@saladgyrl'
p453
aS'@dongibson12'
p454
aS'@Debonairo'
p455
aS'@valentino_jimmy'
p456
aS'@AScottPGA'
p457
aS'@huffingtonpost'
p458
aS'@MissUniverse'
p459
aS'@MiamiHEAT'
p460
aS'@jaymztyler'
p461
aS'@ppppolls'
p462
aS'@ABC'
p463
aS'@MichelleM'
p464
aS'@peterkleschen'
p465
aS'@NYRangers'
p466
aS'@iamkeysersoze'
p467
aS'@TheView'
p468
aS"@EmilyMiller's"
p469
aS'@NYCTiggy'
p470
aS"@Omarosa's"
p471
aS'@SethMacFarlane'
p472
aS'@comfynumb2012'
p473
aS'@RealLeslies'
p474
aS'@michellemalkin'
p475
aS'@TheGarden'
p476
aS'@Lisa_Smith70'
p477
aS'@pewresearch'
p478
aS'@ZachJohnsonPGA'
p479
aS'@TheDailyShow'
p480
aS'@ODedOnRealityTV'
p481
aS'@Subhana_Anwar'
p482
aS'@antbaxter'
p483
aS'@FOXSports'
p484
aS'@mjohnstonxoxo'
p485
aS'@akmackey'
p486
aS'@quicksorter'
p487
aS'@FoxNews'
p488
aS'@AxlRose1996'
p489
aS'@IvanGH'
p490
aS'@TimsSketchPad'
p491
aS'@npbraden'
p492
aS'@RicardoHernanG'
p493
aS'@JoeTorre'
p494
aS'@WSJ'
p495
aS'@Rich_LaBelle'
p496
aS'@OldManConroy'
p497
aS'@UberFacts'
p498
aS'@tribecafilmfest'
p499
aS'@VeIvetRose'
p500
aS'@NickFaldo006'
p501
aS'@VPBiden'
p502
aS"@LilJon's"
p503
aS"@marklevinshow's"
p504
aS'@jbailey1987'
p505
aS'@ApprenticeNBC'
p506
aS'@SFGate'
p507
aS'@piersmorgan'
p508
aS'@LetsBeckRush'
p509
aS'@NewYorkObserver'
p510
aS'@afolasoji'
p511
aS'@atlthrasher'
p512
aS'@Nautilus916'
p513
aS'@TaraHill5'
p514
aS'@FaithandFreedom'
p515
aS'@beverly_buck'
p516
aS'@PPFA'
p517
aS'@Slider6294'
p518
aS'@BenBradleyABC7'
p519
aS'@pgaofamerica'
p520
aS'@ProudlySA'
p521
aS'@Non_PC_Guy'
p522
aS'@TheSportsSwede'
p523
aS"@DannyZuker's"
p524
aS"@willweatherford's"
p525
aS'@gretawire'
p526
aS'@mtshastacola'
p527
aS'@MarlenaWells'
p528
aS'@JimPethokoukis'
p529
aS'@AdamScott'
p530
aS'@ShepherdGarrett'
p531
aS'@BBC'
p532
aS'@Linda_McMahon'
p533
aS'@AP'
p534
aS'@alecmillionaire'
p535
aS'@Dayanamendoza'
p536
aS'@lightjzup'
p537
aS'@ananavarro'
p538
aS'@RyDev22'
p539
aS'@GeorgeClooney'
p540
aS'@Brn2ShpFrcd2Wrk'
p541
aS'@bakerjb19'
p542
aS'@StephenBaldwin7'
p543
aS'@amandaphantm'
p544
aS'@WayneDupreeShow'
p545
aS'@codyaa722'
p546
aS'@kevconnorsespn'
p547
aS'@pbrooks65'
p548
aS'@daytradersfx'
p549
aS"@jack_welch's"
p550
aS'@annmcg01'
p551
aS'@BubbasLmky'
p552
aS'@clayaiken'
p553
aS'@latoyajackson'
p554
aS'@tylerhogan1'
p555
aS'@Austan_Goolsbee'
p556
aS'@AnnetteNavaret'
p557
aS'@byoppjr'
p558
aS'@adamcarolla'
p559
aS'@ChesterfieldGOP'
p560
aS'@Prince_Keign'
p561
aS'@1010WINSNewYork'
p562
aS'@PabloRaffaele'
p563
aS'@GAPools'
p564
aS'@AugustaNational'
p565
aS'@CforColby'
p566
aS'@lovitt_marisa'
p567
aS"@TheTinaBeast's"
p568
aS'@dawson_Stock'
p569
aS'@CelebApprentice'
p570
aS'@AlCardenasACU'
p571
aS"@acuconservative's"
p572
aS'@meetthepress'
p573
aS'@LodgeatDoonbeg'
p574
aS'@TheRealMarilu'
p575
aS'@akendall13'
p576
aS'@chucktodd'
p577
aS'@canoetravel'
p578
aS'@MisterJoe49'
p579
aS'@JShue20'
p580
aS'@Boeing'
p581
aS'@RowRee'
p582
aS'@McIlroyRory'
p583
aS'@jimmykimmel'
p584
aS'@nbcsnl'
p585
aS'@BretMichaels'
p586
aS'@PeteRose_14'
p587
aS'@jmull71'
p588
aS'@PGATOUR'
p589
aS'@noma2300'
p590
aS'@jtatsuno'
p591
aS'@BernardMcGuirk'
p592
aS'@CharlieMaikis'
p593
aS"@BetteMidler's"
p594
aS'@Reince'
p595
aS'@ThirdForceNews'
p596
aS'@BillageT1'
p597
aS'@yokoono'
p598
aS'@TheRock'
p599
aS'@Gabagul_'
p600
aS'@jakewittman'
p601
aS'@amstaffbru'
p602
aS'@amazon'
p603
aS'@foolishvessel'
p604
aS'@TheTrueAnthony'
p605
aS'@JonathanAFrye'
p606
aS'@KarlRove'
p607
aS'@DannyZuker'
p608
aS'@HL3tweets'
p609
aS'@MadeinNY'
p610
aS'@RealSonnyNewman'
p611
aS"@DanAmira's"
p612
aS'@WrestleMania'
p613
aS'@KellyRipa'
p614
aS'@GolfDigestMag'
p615
aS'@ClemensIsland13'
p616
aS'@hardball_chris'
p617
aS'@513pango'
p618
aS'@nickjonas'
p619
aS'@David_Bossie'
p620
aS'@limbaugh'
p621
aS'@Dafny01'
p622
aS'@ForQ2'
p623
aS'@realbobmassi'
p624
aS'@HighTide1989'
p625
aS'@TamiMiddleton'
p626
aS"@AGSchneiderman's"
p627
aS'@Dinamico_7'
p628
aS'@Pourquoipas20'
p629
aS'@apageor2'
p630
aS'@megynkelly'
p631
aS'@JoseCanseco'
p632
aS'@MittRomney-'
p633
aS'@PartylikeRlove1'
p634
aS'@heyavampirebat'
p635
aS'@Steelchecker'
p636
aS'@ITTRP'
p637
aS'@IamStevenT'
p638
aS'@smerconish'
p639
aS'@swetasamota'
p640
aS'@HatingBreitbart'
p641
aS'@PhilipMyrer'
p642
aS'@GovChristie'
p643
aS'@mmanut'
p644
aS'@SeanKAnderson'
p645
aS'@attnyc'
p646
aS'@tdragonfly'
p647
aS'@MacFarb'
p648
aS'@grantgphoto'
p649
aS'@farm_mom'
p650
aS"@SHAQ's"
p651
aS'@Helena_Torry'
p652
aS'@Richard_Meier'
p653
aS'@PamelaGeller'
p654
aS'@KyleMcCall4'
p655
aS'@gootecks'
p656
aS'@nypost'
p657
aS'@Mark_Sanchez'
p658
aS'@yankee'
p659
aS'@JoelKrautter'
p660
aS'@maxstiegemeier'
p661
aS'@AFPhq'
p662
aS'@RachelYohee'
p663
aS'@PhilStephen'
p664
aS'@JasonDufner'
p665
aS'@DohaBen'
p666
aS'@dwangpow'
p667
aS'@bobmcdonnell'
p668
aS'@Winger23'
p669
aS'@LexiPerez96'
p670
aS'@EliotSpitzer'
p671
aS'@NextLevelStoner'
p672
aS'@BabyFuzz1969'
p673
aS'@ALEKSMM'
p674
aS'@RyanSeacrest'
p675
aS'@NCGOP'
p676
aS'@williamgardanis'
p677
aS'@RoyalStr8tFlush'
p678
aS'@CoachZachCooper'
p679
aS"@WWE's"
p680
aS"@VanityFair's"
p681
aS'@PennState'
p682
aS'@AnnCoulter'
p683
aS'@MLB'
p684
aS'@karina_kemala'
p685
aS'@kyleraccio'
p686
aS'@DRUDGE_REPORT'
p687
aS'@roannasweet'
p688
aS'@KevRedford'
p689
aS'@Team_Mitch'
p690
aS'@tjwacker'
p691
aS'@DanHenninger'
p692
aS'@Rosie'
p693
aS'@Denver_Broncos'
p694
aS"@PaulRyan's"
p695
aS'@CrewSawyer'
p696
aS'@bridgetmarie89'
p697
aS'@johnsununu'
p698
aS'@millonseconds'
p699
aS'@justingodfrey'
p700
aS'@kasek_craig'
p701
aS'@JonNeumeister'
p702
aS'@Randirobics'
p703
aS'@ScottWalker'
p704
aS'@RepLeadConf'
p705
aS'@Sir_KLZA'
p706
aS'@Javi8104'
p707
aS'@JamesOKeefeIII'
p708
aS'@susanvhinds'
p709
aS'@Citizens_United'
p710
aS'@drewbrees'
p711
aS'@Leigh26Heather'
p712
aS'@AGSchneiderman--Spitzer'
p713
aS'@ariannahuff'
p714
aS"@MLB's"
p715
aS"@America's"
p716
aS'@Rosemarrisa'
p717
aS'@DailyBeast'
p718
aS'@peyton2419'
p719
aS'@AllenWronowski'
p720
aS'@RepWeiner'
p721
aS'@bobschieffer'
p722
aS'@South_Said'
p723
aS'@willweatherford'
p724
aS'@pareene'
p725
aS'@TarikaN_11'
p726
aS'@NaghmehAbedini'
p727
aS'@DanRebellato'
p728
aS'@LaurieRobertson'
p729
aS'@chuckiscool'
p730
aS'@IanRambally'
p731
aS'@RGIII'
p732
aS'@geomac24'
p733
aS'@epowell88'
p734
aS'@Rizz_Lizz'
p735
aS'@bradkovach'
p736
aS'@FinancialTimes'
p737
aS'@GovMikeHuckabee'
p738
aS"@BillMoyers'"
p739
aS'@ericfranson'
p740
aS'@TonyLaRussa'
p741
aS'@BackOnTrackUSA'
p742
aS'@Candynecklace2'
p743
aS'@ArchieMooreBye'
p744
aS'@2014_vince'
p745
aS'@MIGOP'
p746
aS'@dexterpugh'
p747
aS'@jbail33'
p748
aS'@Toxmaster'
p749
aS'@eagles'
p750
aS'@mstacey9'
p751
aS'@sigsauerinc'
p752
aS'@EricCantor'
p753
aS'@PrimeMinisterSX'
p754
aS"@SInow's"
p755
aS'@seanparts'
p756
aS'@SpecialReport'
p757
aS'@greta'
p758
aS'@iPlanned'
p759
aS'@kstan500'
p760
aS'@MonicaCrowley'
p761
aS'@BritishGQ'
p762
aS'@Beardymilne'
p763
aS'@Lord'
p764
aS'@jon_fullerton'
p765
aS'@RedSox'
p766
aS'@designergirla'
p767
aS'@coachofspin'
p768
aS'@karlrove'
p769
aS'@susanmahoneyxo'
p770
aS'@Midgespeaks'
p771
aS'@Deneetro'
p772
aS'@RonKaufmanIntrn'
p773
aS"@ApprenticeNBC's"
p774
aS'@netflix'
p775
aS'@GovWalker'
p776
aS"@MickyArison's"
p777
aS'@KillngAmerJobs'
p778
aS'@naunie_b'
p779
aS'@RNC'
p780
aS'@smxtty_'
p781
aS'@sfchronicle'
p782
aS'@magmom13'
p783
aS'@Ziggi92'
p784
aS'@TIME'
p785
aS'@GStephanopoulos'
p786
aS'@florianooke'
p787
aS'@Hallmarr'
p788
aS'@DWatts3'
p789
aS'@PinehurstResort'
p790
aS'@danabrams'
p791
aS'@mets'
p792
aS'@AscotCarRental'
p793
aS'@PIERPAOLOMONNI'
p794
aS'@FFCoalition'
p795
aS'@shepherd_connor'
p796
aS'@angie_ncislover'
p797
aS'@sinnerofa10shun'
p798
aS'@SonnyGirard'
p799
aS'@volkermillion'
p800
aS'@MagnaSearchGRP'
p801
aS'@ReederJosh'
p802
aS'@neilmsdunn'
p803
aS'@stalkinpeople'
p804
aS"@AROD's"
p805
aS'@bearmntn'
p806
aS'@GovMike'
p807
aS'@ErinBurnett'
p808
aS'@AmyRusso108'
p809
aS'@AllAmerVet'
p810
aS"@NYMag's"
p811
aS'@DeannaSpillyard'
p812
aS'@gingram66'
p813
aS'@Schwarzenegger'
p814
aS'@PeteRose'
p815
aS'@SquawkCNBC'
p816
aS'@NYGovCuomo'
p817
aS'@PiersMorganLive'
p818
aS'@MattGinellaGC'
p819
aS'@ObamaCare'
p820
aS'@WWERaw'
p821
aS'@OutFrontCNN'
p822
aS'@michaelledeitri'
p823
aS'@DNC'
p824
aS'@Eurphrosye'
p825
aS'@Lumberportal'
p826
aS'@Morning_Joe'
p827
aS'@miamarrazza'
p828
aS"@DJPaulyD's"
p829
aS'@SbelSbel3555'
p830
aS'@GrimeyGatsby'
p831
aS'@TurnberryBuzz'
p832
aS'@KathleenSebelius'
p833
aS'@Dzeroseven'
p834
aS'@SammartinoBruno'
p835
aS'@MichaelCohen212'
p836
aS'@RoniSeale'
p837
aS'@african11'
p838
aS'@TrayvonMartin'
p839
aS'@billmaher'
p840
aS'@donmarie16'
p841
aS'@Oprah'
p842
aS'@GOP'
p843
aS'@FrankLuntz'
p844
aS'@FlyinOSUBuckeye'
p845
aS'@ericbolling'
p846
aS'@TimWristen'
p847
aS'@Cher'
p848
aS'@deniseprobe'
p849
aS'@iamgavinjames'
p850
aS'@BornAgain8344'
p851
aS'@18_4_LIFE'
p852
aS'@piano807'
p853
aS'@Patriots'
p854
aS'@masotam'
p855
aS'@Clare_OC'
p856
aS'@Newsweek'
p857
aS'@ochughes'
p858
aS'@AmiciPhoto'
p859
aS'@HayJayP26'
p860
aS'@OfficialMCD'
p861
aS'@NBCNightlyNews'
p862
aS"@USAToday's"
p863
aS'@TWC'
p864
aS'@NewYorkGOP'
p865
aS'@adamwebb_uk'
p866
aS'@TundraSwans'
p867
aS'@Aberdeenshire'
p868
aS'@MCC_CT'
p869
aS'@WhiteShaunwhite'
p870
aS'@THEGaryBusey'
p871
aS'@teresa_giudice'
p872
aS'@HoustonGunn'
p873
aS'@HuffingtonPost'
p874
aS'@ArsenioHall'
p875
aS'@Fan_JCena'
p876
aS'@FBIPressOffice'
p877
aS'@BenAffleck'
p878
aS'@whitehouse'
p879
aS'@tinaclean'
p880
aS'@GovernorPerry'
p881
aS'@RobertUndefined'
p882
aS'@anthonyweiner'
p883
aS'@MichaelRubinton'
p884
aS'@Bahleezy'
p885
aS'@racheljoycowley'
p886
aS'@shred_session'
p887
aS'@sAygO_P'
p888
aS'@AOL'
p889
aS'@MichelleMalkin'
p890
aS'@10AJMcCarron'
p891
aS'@MittRomney--people'
p892
aS'@fox_trot_1'
p893
aS'@GeorgeFWill'
p894
aS'@Abtheproducer'
p895
aS'@EcatXerxes'
p896
aS'@mrmikeyharrison'
p897
aS'@Toure'
p898
aS'@jheil'
p899
aS"@Macy's"
p900
aS'@Fund_Anything'
p901
aS'@Insanepricing'
p902
aS'@DennisRodman'
p903
aS'@ben_techpro'
p904
aS'@realMikeShapiro'
p905
aS'@FlaGovScott'
p906
aS'@NYDailyNews'
p907
aS'@salefisher'
p908
aS'@inkinhole'
p909
aS'@Shawn_Maynard'
p910
aS'@DaSchott'
p911
aS'@_Warrendya_'
p912
aS'@ericleebow'
p913
aS'@pharris610'
p914
aS'@MarkMoreland'
p915
aS'@Mason_Marcucci'
p916
aS'@joeyhatcher'
p917
aS'@kabarzombie69'
p918
aS'@tbott22'
p919
aS'@KatySutherland6'
p920
aS'@Kelliejo2013'
p921
aS'@MichelleMeyer10'
p922
aS'@Scootray88'
p923
aS'@ToddFouche1'
p924
aS'@dcexaminer'
p925
aS'@CraigSJ'
p926
aS'@TheMayorMatt'
p927
aS'@MannyPacquiao'
p928
aS'@kiss925toronto'
p929
aS'@foxandfriends'
p930
aS'@christianlasval'
p931
aS'@ronanofficial'
p932
aS'@TheRevAl'
p933
aS'@borland_jim'
p934
aS'@905K9'
p935
aS'@JimTalent'
p936
aS'@SunnyJL52'
p937
aS'@parisitony'
p938
aS'@nytimes'
p939
aS'@marleematlin'
p940
aS'@HBO'
p941
aS'@rginn_1'
p942
aS'@dansalbreiter'
p943
aS"@JonahNRO's"
p944
aS'@DylMyr'
p945
aS'@Telemundo'
p946
aS'@frankibe'
p947
aS'@Flash1love'
p948
aS'@wvcarsong'
p949
aS'@loverofthecross'
p950
aS'@secupp'
p951
aS'@BaseballHall'
p952
aS'@RollingStone'
p953
aS'@PapaJohns'
p954
aS'@prdnjoy67'
p955
aS'@newhopenchange'
p956
aS'@RustinNiles'
p957
aS'@jayleno'
p958
aS'@DLoesch'
p959
aS'@Lawrence'
p960
aS'@MedvedevRussiaE'
p961
aS'@MichelleObama--and'
p962
aS'@greggutfeld'
p963
aS'@charleslfreemn'
p964
aS'@bradleymenglin'
p965
aS'@nbc--Celebrity'
p966
aS'@TuleTwilight'
p967
aS'@Richardjnandlal'
p968
aS'@NBA'
p969
aS'@RhondaMemphis'
p970
aS'@NBC'
p971
aS'@ashleycam2883'
p972
aS'@JonahNRO'
p973
aS'@SteveRickettsSP'
p974
aS'@JohnKerry'
p975
aS'@club4growth'
p976
aS'@LarryLivermore'
p977
aS'@mattyheisman'
p978
aS'@melpoluk'
p979
aS'@libertybellskp'
p980
aS'@Yankees'
p981
aS'@StockMarket100'
p982
aS'@JeremyPage3011'
p983
aS'@RockChalkSpence'
p984
aS'@WOR710'
p985
aS'@buffalobills'
p986
aS'@KieranLalor'
p987
aS'@KelBug99'
p988
aS'@ruralbeeffarmer'
p989
aS'@TammieHarrison'
p990
aS'@eddiebrognano'
p991
aS'@dandeloof'
p992
aS'@walaa_3ssaf'
p993
aS'@DawnieDeee'
p994
aS'@LeoDiCaprio'
p995
aS'@NeanderthalMan1'
p996
aS"@DiscoveryCanada--don't"
p997
aS'@marklevinshow'
p998
aS'@DavidWright'
p999
aS'@lisakaminsky'
p1000
aS'@CrystalLee1971'
p1001
aS'@GarySinise'
p1002
aS"@BBCNews'"
p1003
aS'@NYGiants'
p1004
aS'@TODAYshow'
p1005
aS'@danshaw2012'
p1006
aS'@mikeluis93'
p1007
aS"@marcorubio's"
p1008
aS'@SmuMom54'
p1009
aS'@Kateplusmy8'
p1010
aS'@NY_POLICE'
p1011
aS'@jeffreypham'
p1012
aS'@SarahPalinUSA'
p1013
aS'@GovernorPataki'
p1014
aS'@Nationals'
p1015
aS'@TheBarkerBaker'
p1016
aS'@ArsenioOFFICIAL'
p1017
aS'@BigBobScott'
p1018
aS'@stephenfhayes'
p1019
aS"@VattenfallGroup's"
p1020
aS'@dan_kir96'
p1021
aS'@Barack'
p1022
aS'@cwbmustang'
p1023
aS'@alexsalmond'
p1024
aS'@jglenstevens'
p1025
aS'@Rogerjmunson'
p1026
aS'@MikeDemkiw'
p1027
aS'@AnnDRomney'
p1028
aS'@DerrinTexada'
p1029
aS'@arid93'
p1030
aS'@DeViouSDoLL82'
p1031
aS'@FloydMayweather'
p1032
aS'@NYPD'
p1033
aS'@Natures_Voice'
p1034
aS'@pedal_real_fast'
p1035
aS'@BillDaley1'
p1036
aS'@donna_1004'
p1037
aS'@michael74085825'
p1038
aS'@smickiwench'
p1039
aS'@ABCPolitics'
p1040
aS'@RogerClemens'
p1041
aS'@Corte74'
p1042
aS'@martinwatt382'
p1043
aS'@billclinton'
p1044
aS'@DrZuhdiJasser'
p1045
aS'@charleyUfarley'
p1046
aS'@micr0driguez'
p1047
aS'@genesimmons'
p1048
aS'@nolanitenyc'
p1049
aS'@dennisrodman'
p1050
aS"@lisalampanelli's"
p1051
aS'@RebaForever58'
p1052
aS'@StefThomason'
p1053
aS'@zahmad_a'
p1054
aS'@MileyCyrus'
p1055
aS'@mathewaiken'
p1056
aS'@MartinFagervik'
p1057
aS'@GeorgeTakei'
p1058
aS'@tomhanks'
p1059
aS'@saintanselm'
p1060
aS'@chrisbrown'
p1061
aS'@KAThomas212'
p1062
aS'@steveprecision1'
p1063
aS'@joniernst'
p1064
aS'@JLaudner'
p1065
aS'@GolfMonthly'
p1066
aS'@TomNocera'
p1067
aS'@Newsmax__Media'
p1068
aS'@OpenChampionship'
p1069
aS'@RamboFo'
p1070
aS'@Mikeveltman'
p1071
aS'@BloombergNews'
p1072
aS'@Show5783'
p1073
aS'@AllenWest'
p1074
aS'@GMA'
p1075
aS'@brooklynnets'
p1076
aS'@slees1705'
p1077
aS'@MaestroBeadles'
p1078
aS'@PatsIntensity'
p1079
aS'@USAToday'
p1080
aS'@usopen'
p1081
aS"@Lord_Sugar--I'm"
p1082
aS'@EdwardFCox'
p1083
aS'@espn'
p1084
aS'@Omarosa'
p1085
aS'@Macys'
p1086
aS'@MatthewLumby'
p1087
aS'@redcross'
p1088
aS'@Paula_White'
p1089
aS'@washtimes'
p1090
aS'@JoyVBehar'
p1091
aS'@serenawilliams'
p1092
aS'@BJKizer74'
p1093
aS'@onedaddy26'
p1094
aS'@RealSheriffJoe'
p1095
aS'@BillBratton'
p1096
aS'@SMK4ye'
p1097
aS'@ComedyCentral'
p1098
aS"@MittRomney's"
p1099
aS'@LBabcock2'
p1100
aS'@RobinRoberts'
p1101
aS'@GSMgolf'
p1102
aS'@aclutter51'
p1103
aS'@boyscouts'
p1104
aS'@JTHolder2010'
p1105
aS'@macys'
p1106
aS'@tufnrs73'
p1107
aS"@EdRendell's"
p1108
aS'@BrandiHarmon'
p1109
aS'@Redskins'
p1110
aS'@TheKudlowReport'
p1111
aS'@WhoopiGoldberg'
p1112
aS"@claudiajordan's"
p1113
aS'@instapundit'
p1114
aS'@RyanSeven'
p1115
aS'@legsidelizzy'
p1116
aS'@fay'
p1117
aS'@stuartpstevens'
p1118
aS'@rydercup'
p1119
aS'@LennyDopkin'
p1120
aS'@LCBeaudoin'
p1121
aS'@Jeep'
p1122
aS'@Late_Show'
p1123
aS'@LianneOnLife'
p1124
aS'@BillMoyers'
p1125
aS'@LaToyaJackson'
p1126
aS'@AlexSalmond'
p1127
aS'@RickSantorum'
p1128
aS'@baeck'
p1129
aS'@LisaLampanelli'
p1130
aS'@house6000'
p1131
aS'@PiersMorgan'
p1132
aS'@DanAmira'
p1133
aS'@CNN'
p1134
aS'@not_that_actor'
p1135
aS'@RSPBScotland'
p1136
aS'@TGowdySC'
p1137
aS'@GQMagazine'
p1138
aS'@4geiger'
p1139
aS'@rtesta'
p1140
aS'@paulcdevlin'
p1141
aS'@ShawnGarrett'
p1142
aS"@RepJeffDuncan's"
p1143
aS'@swamp_bug'
p1144
aS'@KirstenPowers'
p1145
aS'@felinemenice'
p1146
aS'@David_Cameron'
p1147
aS'@AlyssaMenasci'
p1148
aS'@MELANIATRUMP'
p1149
aS'@SixteenChicago'
p1150
aS'@Austile147'
p1151
aS'@zak_boxer'
p1152
aS'@Marlins'
p1153
aS'@foxnews'
p1154
aS'@D_Hastie'
p1155
aS'@lisarinna'
p1156
aS'@VattenfallGroup'
p1157
aS'@damacofficial'
p1158
aS'@CommissionerKelly'
p1159
aS'@perkins_holly'
p1160
aS'@faktmeister'
p1161
aS'@Forbes'
p1162
aS'@sam_tucker17'
p1163
aS'@PennState--lost'
p1164
aS'@BarbaraJWalters'
p1165
aS"@Ed_Klein's"
p1166
aS'@wfdelong'
p1167
aS'@rdowns'
p1168
aS'@Erizzle05'
p1169
aS'@voguemagazine'
p1170
aS'@nbc'
p1171
aS'@RebeccaErin_'
p1172
aS'@WantonSoop'
p1173
aS'@nbcnightlynews'
p1174
aS'@GiulianaRancic'
p1175
aS'@PopularPosters'
p1176
aS'@CarlosGerboles'
p1177
aS'@MarthaRaddatz'
p1178
aS'@JohnRich'
p1179
aS'@TodayShow'
p1180
aS'@DannyZucker'
p1181
aS'@evyfitz'
p1182
aS'@washingtonpost'
p1183
aS'@__Jibz'
p1184
aS'@TruckerSamF'
p1185
aS'@_EOD'
p1186
aS'@ArkieLad'
p1187
aS'@oreillyfactor'
p1188
aS'@AndyPettitte'
p1189
a.