(lp1
S"@AlexSalmond's"
p2
aS'@TigerWoods'
p3
aS'@BillClinton'
p4
aS'@apprenticenbc'
p5
aS'@bretbaier'
p6
aS'@tuckercarlson'
p7
aS'@MittRomney'
p8
aS'@CNNPolitics'
p9
aS"@AnnCoulter's"
p10
aS'@rushlimbaugh'
p11
aS'@NewYorkPost'
p12
aS'@nydailynews'
p13
aS'@Broncos'
p14
aS"@CNN's"
p15
aS"@hardball_chris'"
p16
aS"@FoxNews'"
p17
aS'@BetteMidler'
p18
aS'@FoxBusiness'
p19
aS'@DineshDSouza'
p20
aS"@StephenBaldwin7's"
p21
aS'@VanityFair'
p22
aS'@ArsenioOfficial'
p23
aS'@GovernorSununu'
p24
aS'@yankees'
p25
aS"@DineshDSouza's"
p26
aS'@RalphGilles'
p27
aS'@newtgingrich'
p28
aS'@TimeWarner'
p29
aS'@Israel'
p30
aS'@georgewillf'
p31
aS'@BreitbartNews'
p32
aS'@politico'
p33
aS'@NYMag'
p34
aS"@Israel's"
p35
aS'@EvaLongoria'
p36
aS'@EmilyMiller'
p37
aS'@katyperry'
p38
aS'@JoeBiden'
p39
aS'@msnbc'
p40
aS"@RepPaulRyan's"
p41
aS"@antbaxter's"
p42
aS'@Chrysler'
p43
aS"@RickSantorum's"
p44
aS'@TMobile'
p45
aS'@nfl'
p46
aS'@McLaughlinGroup'
p47
aS'@AGSchneiderman'
p48
aS'@rupertmurdoch'
p49
aS'@T-Mobile'
p50
aS'@PaulRyanVP'
p51
aS'@DerekJeter'
p52
aS'@MikeBloomberg'
p53
aS'@BillyGraham'
p54
aS'@thedailybeast'
p55
aS"@washingtonpost's"
p56
aS'@sethmeyers'
p57
aS'@JusticeRoberts'
p58
aS'@taylorswift13'
p59
aS"@TigerWoods'"
p60
aS'@ThisWeekABC'
p61
aS'@MayorBloomberg'
p62
aS"@CondoleezzaRice's"
p63
aS'@MSNBC'
p64
aS'@FLGovScott'
p65
aS'@BretBaier'
p66
aS'@chicagotribune'
p67
aS'@MichaelPhelps'
p68
aS'@PBS'
p69
aS'@NRA'
p70
aS'@DavidShuster'
p71
aS'@MissUSA'
p72
aS'@MittRomnney'
p73
aS'@Univision'
p74
aS'@Hillary'
p75
aS'@rihanna'
p76
aS'@NBCBlacklist'
p77
aS'@NFL'
p78
aS'@Lord_Sugar'
p79
aS'@BuzzFeed'
p80
aS'@LibertyU'
p81
aS'@TigerWoods-hits'
p82
aS'@newyorktimes'
p83
aS'@CNBC'
p84
aS'@MELANIATRUMP-'
p85
aS"@BillyGraham's"
p86
aS'@lancearmstrong'
p87
aS'@TimTebow'
p88
aS'@JeremiahWright'
p89
aS'@huffingtonpost'
p90
aS'@MissUniverse'
p91
aS'@ABC'
p92
aS'@NYRangers'
p93
aS'@TheDailyShow'
p94
aS'@antbaxter'
p95
aS'@FOXSports'
p96
aS'@FoxNews'
p97
aS'@WSJ'
p98
aS'@VPBiden'
p99
aS'@ApprenticeNBC'
p100
aS'@SFGate'
p101
aS'@NewYorkObserver'
p102
aS'@BBC'
p103
aS'@AP'
p104
aS'@StephenBaldwin7'
p105
aS'@jimmykimmel'
p106
aS'@nbcsnl'
p107
aS'@amazon'
p108
aS'@limbaugh'
p109
aS"@AGSchneiderman's"
p110
aS'@megynkelly'
p111
aS'@MittRomney-'
p112
aS'@nypost'
p113
aS'@yankee'
p114
aS"@VanityFair's"
p115
aS'@PennState'
p116
aS'@AnnCoulter'
p117
aS"@PaulRyan's"
p118
aS'@Citizens_United'
p119
aS'@AGSchneiderman--Spitzer'
p120
aS'@ariannahuff'
p121
aS"@America's"
p122
aS'@DailyBeast'
p123
aS'@GovMikeHuckabee'
p124
aS"@ApprenticeNBC's"
p125
aS'@netflix'
p126
aS'@GovWalker'
p127
aS'@sfchronicle'
p128
aS'@TIME'
p129
aS'@GovMike'
p130
aS"@NYMag's"
p131
aS'@Schwarzenegger'
p132
aS'@ObamaCare'
p133
aS'@billmaher'
p134
aS'@Oprah'
p135
aS'@GOP'
p136
aS'@FrankLuntz'
p137
aS'@Newsweek'
p138
aS"@USAToday's"
p139
aS'@HuffingtonPost'
p140
aS'@whitehouse'
p141
aS'@GovernorPerry'
p142
aS'@anthonyweiner'
p143
aS'@NYDailyNews'
p144
aS'@HBO'
p145
aS'@RollingStone'
p146
aS'@PapaJohns'
p147
aS'@jayleno'
p148
aS'@MichelleObama--and'
p149
aS'@NBA'
p150
aS'@club4growth'
p151
aS'@TODAYshow'
p152
aS'@SarahPalinUSA'
p153
aS'@GovernorPataki'
p154
aS'@Barack'
p155
aS'@billclinton'
p156
aS'@MileyCyrus'
p157
aS'@GeorgeTakei'
p158
aS'@tomhanks'
p159
aS'@redcross'
p160
aS'@serenawilliams'
p161
aS'@ComedyCentral'
p162
aS"@MittRomney's"
p163
aS'@RickSantorum'
p164
aS'@MELANIATRUMP'
p165
aS'@VattenfallGroup'
p166
aS'@Forbes'
p167
aS'@BarbaraJWalters'
p168
aS'@nbc'
p169
aS'@Bettermidler'
p170
aS'@hardball_chris'
p171
aS'@FinancialTimes'
p172
aS'@karlrove'
p173
aS'@TrayvonMartin'
p174
aS"@Macy's"
p175
aS'@nytimes'
p176
aS'@NBC'
p177
aS'@marcorubio'
p178
aS'@VattenfallGroup'
p179
aS'@alexsalmond'
p180
aS'@dennisrodman'
p181
aS'@BloombergNews'
p182
aS'@USAToday'
p183
aS'@WhoopiGoldberg'
p184
aS'@AlexSalmond'
p185
aS'@CNN'
p186
aS'@GQMagazine'
p187
aS'@David_Cameron'
p188
aS'@oreillyfactor'
p189
aS'@RickSantorum'
p190
a.