(lp1
S'404@jaw44444'
p2
aS'404@timjcam'
p3
aS'404@holzmdk'
p4
aS'404@pga_com'
p5
aS'404@rjbachor'
p6
aS'404@byron400'
p7
aS'404@mikefroccaro'
p8
aS'@augustanational'
p9
aS'404@williamlive5'
p10
aS'404@miorazhari'
p11
aS'404@toddz64'
p12
aS'404@cough93'
p13
aS'@carlrove'
p14
aS'404@dattan78'
p15
aS'@macy'
p16
aS'404@candy_uptigrove'
p17
aS'404@trumpgrill'
p18
aS'404@theholst'
p19
aS'404@2letters1number'
p20
aS'404@nate_rogerthat'
p21
aS'404@patrickstinard'
p22
aS'404@dukejrii'
p23
aS'@georgeclooney'
p24
aS'404@warrencasse'
p25
aS'404@brammz3'
p26
aS'@caaataclysm'
p27
aS'404@harrycraig96'
p28
aS'@newyorktimes'
p29
aS'404@thecelidebiasio'
p30
aS'404@tonyinokla2015'
p31
aS'404@darealfito'
p32
aS'404@freedomlives999'
p33
aS'@larry_kudrow'
p34
aS'404@manhattanviking'
p35
aS'404@mhennessh'
p36
aS'404@omgguy18'
p37
aS'404@walterdisneyusa'
p38
aS'404@joeynosocks'
p39
aS'@dannydanon'
p40
aS'404@katrinadevita'
p41
aS'404@sinnerofa10shun'
p42
aS'@upsetnavyvet'
p43
aS'@johnbravo_1'
p44
aS'404@jshue20'
p45
aS'404@mirandakroughh'
p46
aS'404@mrtonyroberts1'
p47
aS'404@millonseconds'
p48
aS'404@jjhrkel'
p49
aS'@robertlbuchsr'
p50
aS'404@smalltwnbignews'
p51
aS'@releafpen'
p52
aS'404@mcat7189x'
p53
aS'404@jbradleydesign1'
p54
aS'404@prince_keign'
p55
aS'404@blayne_troy'
p56
aS'404@0xbloood'
p57
aS'@kiss925toronto'
p58
aS'@rabbitr'
p59
aS'@jayrit'
p60
aS'@brahsumatra'
p61
aS'404@andrewzufel'
p62
aS'404@kelsey_2155'
p63
aS'404@clutchba11er'
p64
aS'404@hannityshow'
p65
aS'@california_bloo'
p66
aS'404@today_clicker'
p67
aS'404@alumadrifter'
p68
aS'404@keyagents'
p69
aS'404@smerwickman'
p70
aS'@golfdigestmag'
p71
aS'@pand'
p72
aS'404@wobriensomerset'
p73
aS'404@sofia_mozek'
p74
aS'404@marketmavensinc'
p75
aS'404@joshlop17'
p76
aS'@anggitalestari1'
p77
aS'404@aleksydasexy'
p78
aS'404@sam_tucker17'
p79
aS'@jaimesells'
p80
aS'404@blitz2fr'
p81
aS'404@otto2468'
p82
aS'@about_life'
p83
aS'404@talsept58'
p84
aS'@kaatje36'
p85
aS'404@austinkaiser52'
p86
aS'@peerindex'
p87
aS'@wtcommunities'
p88
aS'404@bonz21'
p89
aS'404@abdulmalikm103'
p90
aS'@sethmeyers21'
p91
aS'404@gllleymon900000'
p92
aS'404@backupwraith'
p93
aS'404@lisariv76873320'
p94
aS'404@naplessun4664'
p95
aS'404@sternbutgreg'
p96
aS'404@mlnluis'
p97
aS'404@ryanseanheron'
p98
aS'404@danusia234'
p99
aS'@taurus_lovin'
p100
aS'404@taurus82409'
p101
aS'404@trumpinternational'
p102
aS'404@darjar14'
p103
aS'@stephenbaldwin'
p104
aS'404@jixllr'
p105
aS'@barack'
p106
aS'@jjlyons'
p107
aS'404@datadamguy'
p108
aS'@ask2recv'
p109
aS'404@carlotalorenabr'
p110
aS'@mnmans'
p111
aS'404@mattweaver_21'
p112
aS'404@rickyricardo722'
p113
aS'@bb1959'
p114
aS'404@salamifiedrbx'
p115
aS'404@ilovebritney_7'
p116
aS'404@penows'
p117
aS'404@chaz_is_so_bomb'
p118
aS'404@teresaisthebest'
p119
aS'@mark_yamin'
p120
aS'404@jacobkamarasjns'
p121
aS'404@joannalmoore372'
p122
aS'404@reppaulryan'
p123
aS'@growingupbryce'
p124
aS'@annelewischicag'
p125
aS'404@diverojalv'
p126
aS'@tquoteseday'
p127
aS'404@_ayley'
p128
aS'404@nearbatman'
p129
aS'@tarekr'
p130
aS'404@axlrose1996'
p131
aS'@darhowklo'
p132
aS'@shaun_white'
p133
aS'404@jakeawk'
p134
aS'@beverly_buck'
p135
aS'404@matt_marcolini'
p136
aS'@tvbythenumbers'
p137
aS'404@_brandoh'
p138
aS'404@rattiackackack'
p139
aS'404@_blakecox'
p140
aS'404@srwmichellej'
p141
aS'@makeitvisible'
p142
aS'404@aberdeedshire'
p143
aS'@christineinsatx'
p144
aS'404@hailey_hustlerr'
p145
aS'@armusicplanner'
p146
aS'404@chuck_kelly13'
p147
aS'404@beliefheals'
p148
aS'404@almy23841665'
p149
aS'404@johnnyboob2'
p150
aS'404@gfeorg'
p151
aS'@daveletterman'
p152
aS'@bigtigga12'
p153
aS'@texas4'
p154
aS'404@thesethfriend'
p155
aS'404@dietztrott'
p156
aS'@newsmax'
p157
aS'404@keraladubai'
p158
aS'404@kathomas212'
p159
aS'404@mason_marcucci'
p160
aS'404@damacakoya'
p161
aS'404@jimstaricha'
p162
aS'@alexpappasdc'
p163
aS'404@colincavall'
p164
aS'404@niyafiya'
p165
aS'404@alexeveslage'
p166
aS'@fabianross'
p167
aS'404@jbailey1987'
p168
aS'404@mjjustus1'
p169
aS'404@realistboutmine'
p170
aS'@nickysummer'
p171
aS'@josh_b_123'
p172
aS'404@polemicism'
p173
aS'404@gabiryan1990'
p174
aS'404@ali_nugent'
p175
aS'@attnyc'
p176
aS'404@realdonaldtrump\xc2\xa0vote'
p177
aS'404@513pango'
p178
aS'404@maddie_rene'
p179
aS'404@magmom13'
p180
aS'404@mscattitude1'
p181
aS'404@dc_decoder'
p182
aS'404@chuck_kelly1'
p183
aS'404@anishabhasin1'
p184
aS'@dan_numba'
p185
aS'404@fastercarrrrrrr'
p186
aS'404@illest_beats'
p187
aS'404@realrobharrand'
p188
aS'@cpacnews'
p189
aS'404@dslagle132'
p190
aS'404@queynewton'
p191
aS'@leavesofgrass'
p192
aS'404@l100ran'
p193
aS'404@marileenelson'
p194
aS'@rnc'
p195
aS'@diggower'
p196
aS'404@zarkriggs'
p197
aS'404@turnberrybuzz'
p198
aS'404@anthonyskwiat'
p199
aS'404@bama_k1ng'
p200
aS'@lord'
p201
aS'@8pm'
p202
aS'404@_boss_talk'
p203
aS'@drudgereport'
p204
aS'404@k3lci'
p205
aS'404@richkowalski31'
p206
aS'404@vdit13'
p207
aS'404@kerrkerr73'
p208
aS'404@daphnehaven'
p209
aS'@georgewillf'
p210
aS'@sportswalnuts'
p211
aS'404@krissysummers88'
p212
aS'@yosoytumarido'
p213
aS'404@coll4734'
p214
aS'@wcmartzofficial'
p215
aS'@miss'
p216
aS'404@debonairo'
p217
aS'404@chowes247'
p218
aS'@ryanrockefelker'
p219
aS'404@thebarbashop'
p220
aS'404@lisa_luciatesta'
p221
aS'@betbrod'
p222
aS'404@matthewjpizzo'
p223
aS'@dianejackson9'
p224
aS'@fbnatb'
p225
aS'404@theapprentice9'
p226
aS'@cmheel'
p227
aS'404@dominicformaro'
p228
aS'404@no_average_joee'
p229
aS'404@mattia_crovini'
p230
aS'404@megan_lumetta'
p231
aS'404@ldconger'
p232
aS'404@fstltd'
p233
aS'404@higginsane'
p234
aS'@the_masters'
p235
aS'404@bethandersonesq'
p236
aS'404@kaiser1859'
p237
aS'404@jlukerobinson'
p238
aS'404@cmac23jenkins'
p239
aS'404@freedomr@oann'
p240
aS'404@fcvladjoseph'
p241
aS'@edrendell'
p242
aS'@jackpaalay'
p243
aS'404@alecmillionaire'
p244
aS'@the_open'
p245
aS'404@zstr8up'
p246
aS'404@simonkodousek'
p247
aS'404@mimi_la_reina'
p248
aS'@dale26'
p249
aS'404@matt_berry87'
p250
aS'404@_scumprincess'
p251
aS'@tonydabodyguard'
p252
aS'404@_warrendya'
p253
aS'404@zaranawabzadi'
p254
aS'404@johnfulthorpe'
p255
aS'404@sdoocy'
p256
aS'404@haventravel'
p257
aS'@georgezimmerman'
p258
aS'404@ali_khalil7'
p259
aS'404@therealblakeho'
p260
aS'404@gutterferret'
p261
aS'404@disneycuty'
p262
aS'404@d_cash_honey'
p263
aS'@nsingh2024'
p264
aS'404@real_lukashall'
p265
aS'@ryantravers'
p266
aS'404@cyberpunksamuri'
p267
aS'404@ashley_rad1432'
p268
aS'404@stevenharlow85'
p269
aS'404@pam_rugan'
p270
aS'404@lolita_nyc'
p271
aS'404@_just_mads'
p272
aS'@mersjm1'
p273
aS'@chrisagada'
p274
aS'@joshdefreitas1'
p275
aS'404@rushlvr1'
p276
aS'404@trapasso2501'
p277
aS'404@brain__quotes'
p278
aS'404@dolehnyc'
p279
aS'404@chuffman48'
p280
aS'404@afrodeziak'
p281
aS'404@sirblainerichie'
p282
aS'404@amoakabr'
p283
aS'404@greek_boy_21'
p284
aS'404@wakimotho'
p285
aS'404@saugat_p'
p286
aS'404@christianl2499'
p287
aS'@davidbarringer4'
p288
aS'@polling'
p289
aS'@john923'
p290
aS'@blackfridaymgt'
p291
aS'404@vmilaccio'
p292
aS'404@bburke0920'
p293
aS'404@battleface2face'
p294
aS'@marlborostan'
p295
aS'@johnny4a'
p296
aS'404@darrenkellytv'
p297
aS'404@travianno'
p298
aS'404@sayylalalaselah'
p299
aS'404@livin_in_80s'
p300
aS'@michaeljackson'
p301
aS'404@dottieandbogey'
p302
aS'404@goldregime'
p303
aS'404@000hermansjr000'
p304
aS'404@realleslies'
p305
aS'404@mbb2792'
p306
aS'404@americagottalent'
p307
aS'@alfiraazzahra'
p308
aS'@thekudlowreport'
p309
aS'@gusman2013'
p310
aS'404@paleobuilder'
p311
aS'404@dooobieashtray'
p312
aS'@lexi_michaels'
p313
aS'404@mikey_likes_lt'
p314
aS'404@mattmiller728'
p315
aS'404@djmikelny'
p316
aS'@si_golf'
p317
aS'@yankeefan3000'
p318
aS'404@danica2013'
p319
aS'@wicz_2003'
p320
aS'@reagan_nation'
p321
aS'404@jarod_pitmon10'
p322
aS'404@wsgbeme'
p323
aS'404@spencegarcia805'
p324
aS'404@jillian2u2'
p325
aS'@randyrolph'
p326
aS'404@hunterboss1996'
p327
aS'@rickreilly'
p328
aS'@rub'
p329
aS'404@jasonkoster17'
p330
aS'404@therealhillyard'
p331
aS'@nklaeger'
p332
aS'@jmkjmkjmkjmkjmk'
p333
aS'404@chris_w_lawson'
p334
aS'404@emilyluvsuxoxo'
p335
aS'404@verizonlgg2'
p336
aS'@pierstonight'
p337
aS'@apple'
p338
aS'404@extra__chrisb'
p339
aS'404@itshodaifa'
p340
aS'404@bigkick85'
p341
aS'404@carolecjf'
p342
aS'404@lodgeatdoonbeg'
p343
aS'404@markeaston777'
p344
aS'@sportsproverbs'
p345
aS'404@wen'
p346
aS'@nia_sanchez'
p347
aS'404@rebaforever58'
p348
aS'@ustechie'
p349
aS'@golfworldus'
p350
aS'404@rickyricardo223'
p351
aS'@old_vanessag'
p352
aS'@c4662'
p353
aS'@alextbailey'
p354
aS'404@mattginellagcsadly'
p355
aS'404@mr_smoooth'
p356
aS'@moonorion'
p357
aS'@chrisuhrig'
p358
aS'@codybaine'
p359
aS'404@akudej25'
p360
aS'@thorpe81'
p361
aS'@maggieaveu_a'
p362
aS'404@notleadinglady'
p363
aS'404@joooooojaah'
p364
aS'404@gauravk725'
p365
aS'404@t_colello'
p366
aS'404@kwindlan32'
p367
aS'404@sullythinks'
p368
aS'@gjonesiv'
p369
aS'404@11summerb'
p370
aS'@anitaactually'
p371
aS'404@generaltso316'
p372
aS'@tylerhogan1'
p373
aS'@jenil93'
p374
aS'404@ianckeffer'
p375
aS'@__mickey_mouse'
p376
aS'@buzzfeedpsa'
p377
aS'404@kbmc24'
p378
aS'@dnc'
p379
aS'404@jessilin02'
p380
aS'404@wesbart53'
p381
aS'404@rgb0y'
p382
aS'@theapprentice'
p383
aS'404@jthecollegekid'
p384
aS'404@iamgavinjame'
p385
aS'404@fsusteve'
p386
aS'@accountsrs'
p387
aS'404@ellakagency'
p388
aS'404@mfmagofficial'
p389
aS'404@stevebickerton2'
p390
aS'404@__jibz'
p391
aS'404@penguin_rob'
p392
aS'404@thesal_sortino'
p393
aS'404@_stacys_mom'
p394
aS'404@senrandpaul'
p395
aS'404@frankieemt_b'
p396
aS'404@miss_drax'
p397
aS'404@tmobileuk'
p398
aS'404@keyonmatters'
p399
aS'404@whatyouknowjr'
p400
aS'404@trumprink'
p401
aS'404@aspieprobs'
p402
aS'404@swingtrader2012'
p403
aS'@rogerclemens'
p404
aS'404@stshizzle'
p405
aS'404@solfusiongreg'
p406
aS'404@facebook_ben'
p407
aS'404@jordanknoxville'
p408
aS'404@nextlevelstoner'
p409
aS'404@mulletgang2020'
p410
aS'404@klyushina_eng'
p411
aS'404@kevin_johnson68'
p412
aS'404@managerct25'
p413
aS'404@bordenrhodes'
p414
aS'404@mannymacoo'
p415
aS'404@jenglelv'
p416
aS'@mchikkis'
p417
aS'404@jennyfromnexus'
p418
aS'404@kathleensebelius'
p419
aS'@ffcoalition'
p420
aS'@0'
p421
aS'@vpbiden'
p422
aS'@yankee'
p423
aS'@fan_jcena'
p424
aS'404@innovember2012'
p425
aS'404@firephoto67'
p426
aS'404@pmprindiville'
p427
aS'@mlssthot'
p428
aS'404@deannaspillyard'
p429
aS'404@mforbes326'
p430
aS'404@bonafidemadmen\xe2\x9c\x94'
p431
aS'404@saijosaijo75'
p432
aS'404@minlarrycornel'
p433
aS'404@mnm769'
p434
aS'404@newsmax__media'
p435
aS'@kingofgames3000'
p436
aS'404@lovelyfighter8'
p437
aS'404@bbeltku'
p438
aS'404@3nvmusic'
p439
aS'@friend_bus'
p440
aS'@roadrunnerkd'
p441
aS'404@l_jackson_78'
p442
aS'404@official1mcd'
p443
aS'404@martinfagervik'
p444
aS'404@tid4prez'
p445
aS'404@cookvol'
p446
aS'404@macfaddenryan'
p447
aS'@rustinniles'
p448
aS'404@jpnwrites'
p449
aS'404@azuriterealtor'
p450
aS'@commonguymd'
p451
aS'404@grapewhiskey'
p452
aS'@rdpomin'
p453
aS'@bbpack'
p454
aS'@doralresort'
p455
aS'404@joebloww79'
p456
aS'404@dmanhomee'
p457
aS'@real_carl_icahn'
p458
aS'404@anon_thom'
p459
aS'@stevenlas'
p460
aS'404@moosejawnski'
p461
aS'404@pokerswayne'
p462
aS'404@idkbrody'
p463
aS'404@sebast_valmont'
p464
aS'404@melpoluk'
p465
aS'404@minnesotavk81'
p466
aS'@rambofo'
p467
aS'@sachabaroncohen'
p468
aS'404@dialad7'
p469
aS'@majesticljp'
p470
aS'@finestgolfholes'
p471
aS'404@brooneybrooney'
p472
aS'404@jcaavs'
p473
aS'404@fun_foy'
p474
aS'@lacroixroxane'
p475
aS'@dondons1383'
p476
aS'404@reklaw78'
p477
aS'@lilskinny11'
p478
aS'404@johnnyhabit'
p479
aS'404@thineline4'
p480
aS'@reuters_biz'
p481
aS'404@myfmcase'
p482
aS'404@zizzy706'
p483
aS'404@crcalderwood1'
p484
aS'@timwbyrd'
p485
aS'@jonasbrothers'
p486
aS'404@fitnsummit'
p487
aS'404@61webhead'
p488
aS'@brightonpatriot'
p489
aS'404@pattyochs'
p490
aS'@edward1'
p491
aS'404@politibunny'
p492
aS'404@doanertouque'
p493
aS'@seanmichaelmc'
p494
aS'404@b2tac'
p495
aS'404@crazygreentiger'
p496
aS'@ioicasey'
p497
aS'404@jnoboa23'
p498
aS'@gegco'
p499
aS'404@stevanscheer'
p500
aS'@kennybud'
p501
aS'@timewarner'
p502
aS'@ringsherry'
p503
aS'@delavegaprophet'
p504
aS'@jhayman2'
p505
aS'404@brainbow_bite'
p506
aS'404@ghostlyprep'
p507
aS'@kierenash'
p508
aS'404@italy2320'
p509
aS'404@jkoch19koch'
p510
aS'@thealexanderw'
p511
aS'404@coachzachcooper'
p512
aS'@dalailama'
p513
aS'404@gomrunner'
p514
aS'404@uberburgers'
p515
aS'404@pjwj316'
p516
aS'@thegreatgedi'
p517
aS'404@justinraay'
p518
aS'@jenconservative'
p519
aS'@maggiepolitico'
p520
aS'@danratherreport'
p521
aS'404@hailllluminati'
p522
aS'404@meade1214'
p523
aS'@thetinabeast'
p524
aS'404@jesssizzle28'
p525
aS'@speednviolence'
p526
aS'404@lebanesekobe'
p527
aS'@joesantos5150'
p528
aS'404@ironman1021'
p529
aS'@pwnza'
p530
aS'404@tyler_burkecre'
p531
aS'404@chrisfalcodrago'
p532
aS'@philipmorrow'
p533
aS'404@carltoncountry'
p534
aS'404@ashonair101'
p535
aS'404@sam_kotowski'
p536
aS'404@joedurak'
p537
aS'404@savi_swizzle'
p538
aS'404@tickercandy'
p539
aS'404@whywinblo'
p540
aS'404@mike_ginett'
p541
aS'404@lynchzc'
p542
aS'404@sdm_ttg'
p543
aS'404@generalzod4109'
p544
aS'@markkcole'
p545
aS'404@hmackie11'
p546
aS'@gshuba'
p547
aS'404@amadorserver'
p548
aS'404@dusty_radio'
p549
aS'@jimkellyinc'
p550
aS'404@thegrumpyhusky'
p551
aS'404@vanillakissesxx'
p552
aS'404@peterkleschen'
p553
aS'@theviewtv'
p554
aS'@circuspony2'
p555
aS'404@idsoutherl'
p556
aS'@madmartinez'
p557
aS'404@angie_ncislover'
p558
aS'@fugle_tony_328'
p559
aS'404@spence_derek'
p560
aS'404@mom2mno'
p561
aS'404@gsgov'
p562
aS'404@thuglife602'
p563
aS'404@marloamoriello1'
p564
aS'404@myjr54'
p565
aS'404@bllheaded'
p566
aS'404@sobakawa89'
p567
aS'404@flagovscott'
p568
aS'@jayrhaw'
p569
aS'404@1ns1de_j9b'
p570
aS'404@davidkaifaith'
p571
aS'404@_ayooprincess'
p572
aS'@exlwaters'
p573
aS'404@realdonaldtrump\xc2\xa0love'
p574
aS'404@prezbridgette'
p575
aS'404@aakash4cesc'
p576
aS'@paulryanvp'
p577
aS'404@donaldrumsfeld9'
p578
aS'404@fadis_83'
p579
aS'@darlenemichele'
p580
aS'404@zander_humes'
p581
aS'404@gapools'
p582
aS'404@mannypacquiao'
p583
aS'@doctoredsmom'
p584
aS'404@billdabeastii'
p585
aS'404@reallucasduffy'
p586
aS'404@sayhigreg'
p587
aS'404@lungquest'
p588
aS'404@adammatruski'
p589
aS'@wsaleen'
p590
aS'404@fashfrontrunner'
p591
aS'404@elifourv'
p592
aS'@me2palas1yap'
p593
aS'404@tee_rellzz'
p594
aS'404@rennie022164'
p595
aS'404@bloombergluxury'
p596
aS'404@rawrlance'
p597
aS'404@deaf_dwayne'
p598
aS'404@kenzoeblair'
p599
aS'404@2ndvoter'
p600
aS'404@nishantagg23'
p601
aS'404@anon_farmer'
p602
aS'@drudge'
p603
aS'404@zed_crtr'
p604
aS'404@broshoban'
p605
aS'404@erizzle05'
p606
aS'404@tombrokow'
p607
aS'404@hitillidie'
p608
aS'@rockinar'
p609
aS'@adamscott'
p610
aS'404@madg0d'
p611
aS'404@versongoetrix'
p612
aS'404@tplrrt1'
p613
aS'404@mattechase'
p614
aS'404@oledudstillgoin'
p615
aS'404@ivankatrump\xf0\x9f\x98\x8e'
p616
aS'404@matthewsmales1'
p617
aS'404@druudruu'
p618
aS'404@99awesomeone'
p619
aS'@wsgw'
p620
aS'@rickiefowlerpga'
p621
aS'404@straffordnhgop\xe2\x80\x8b'
p622
aS'@wegoted'
p623
aS'404@lifevibevision'
p624
aS'404@therealbigdt'
p625
aS'404@foolishvessel'
p626
aS'404@rangi_mats'
p627
aS'404@moss92g'
p628
aS'404@durangorick'
p629
aS'@a_buon'
p630
aS'@webdanny'
p631
aS'404@drumline_mormon'
p632
aS'404@thisismendim'
p633
aS'404@nfl"@nflcommish'
p634
aS'@davevin73'
p635
aS'404@kathlee08380944'
p636
aS'404@calumspence'
p637
aS'@lateshow'
p638
aS'404@josethegr8t'
p639
aS'404@atmaxh'
p640
aS'404@arkielad'
p641
aS'404@6aa9ce3efe0c468'
p642
aS'404@signoresifis'
p643
aS'404@ny2dc_n_back'
p644
aS'@alcardenasacu'
p645
aS'@littlevd2'
p646
aS'404@aboubacarmande'
p647
aS'404@howddyd'
p648
aS'@brock2120'
p649
aS'404@missuniverse43'
p650
aS'404@luthervii'
p651
aS'@sstew3'
p652
aS'404@smk4ye'
p653
aS'404@funkyfakir'
p654
aS'404@showtimeshelby'
p655
aS'404@dentstwitt'
p656
aS'404@nickj102'
p657
aS'404@wwemarissa_54'
p658
aS'404@wrightmomof3'
p659
aS'404@_lizzly'
p660
aS'@wolfblitzercnn'
p661
aS'404@mikeygojca'
p662
aS'404@miranda__diplo'
p663
aS'404@jorgey1_1985'
p664
aS'404@libertyuniversity'
p665
aS'@rushlimbaugh'
p666
aS'404@abspara'
p667
aS'404@nolehace'
p668
aS'404@mysticmimsy'
p669
aS'404@pam_rugani'
p670
aS'@wizhether'
p671
aS'404@handyrachet'
p672
aS'404@jaredchristophr'
p673
aS'404@lordkaa213'
p674
aS'404@wrhitchcock'
p675
aS'404@champforr'
p676
aS'@_maleki'
p677
aS'404@terrytm112444'
p678
aS'404@realroesch'
p679
aS'404@agent_54'
p680
aS'404@bmp_music_event'
p681
aS'404@andzi11'
p682
aS'@pasvote'
p683
aS'404@ipfinancing'
p684
aS'404@devanalexisb'
p685
aS'404@rizz_lizz'
p686
aS'404@theyardsaleking'
p687
aS'@laraleayunaska'
p688
aS'404@realmaky'
p689
aS'404@missuniversnews'
p690
aS'404@elvinichols'
p691
aS'404@linro_2'
p692
aS'404@paulinabours'
p693
aS'@pencey_mouth'
p694
aS'@rasmussenpoll'
p695
aS'404@rhinostate'
p696
aS'404@lovemyklr'
p697
aS'404@pepper4366'
p698
aS'404@youngbasedgod_g'
p699
aS'@annaw81'
p700
aS'404@nysportfan4life'
p701
aS'404@_xx_alesa'
p702
aS'404@missuniversecanada'
p703
aS'404@reexaminelife'
p704
aS'404@alrightjarret'
p705
aS'404@adamwebb_uk'
p706
aS'404@datriggakeithh'
p707
aS'@hilaryclinton'
p708
aS'404@realdonaldtrump\xc2\xa0'
p709
aS'@kingmortimer'
p710
aS'404@osafolmik'
p711
aS'@shalontabowman'
p712
aS'@sentences'
p713
aS'404@mzinvestigator'
p714
aS'404@subhana_anwar'
p715
aS'404@mrcurvywor'
p716
aS'404@dblsolo700'
p717
aS'404@_fly_on_wall'
p718
aS'@atkins4'
p719
aS'404@ashbash032'
p720
aS'@michaelplu'
p721
aS'404@sloopjohnb15'
p722
aS'404@ndumisozungu22'
p723
aS'404@doyle5smom'
p724
aS'404@jaypeemoney'
p725
aS'404@extra_deep'
p726
aS'404@kameronwhitley'
p727
aS'@pulse2016'
p728
aS'404@xo_deannayoung'
p729
aS'404@islandbluenose'
p730
aS'404@mgmacdon'
p731
aS'404@chadasletten'
p732
aS'404@islesrbyanksfan'
p733
aS'404@chrismashimbyi'
p734
aS'404@keithjmcconnell'
p735
aS'404@larryrobertwyat'
p736
aS'@jdstravel'
p737
aS'404@unabashedprog'
p738
aS'404@ericxmorrison'
p739
aS'404@julian771177'
p740
aS'@desmoines'
p741
aS'404@drjulianxavier'
p742
aS'404@mustardtiger33'
p743
aS'404@neviah_m'
p744
aS'404@dochubbard62'
p745
aS'404@jsalbertousa'
p746
aS'404@lydiapearman'
p747
aS'@i_am_optimistic'
p748
aS'@kmbznews'
p749
aS'404@trcyhwlls'
p750
aS'404@trill_blowa'
p751
aS'404@drjoshmiddleton'
p752
aS'404@yzaccount'
p753
aS'404@hoffers1'
p754
aS'404@waggles71'
p755
aS'404@dylanhendlich'
p756
aS'404@wealthyjack'
p757
aS'@gsmgolf'
p758
aS'404@jackvoices'
p759
aS'@mystikangel'
p760
aS'404@boycottmaypac'
p761
aS'404@lbh39'
p762
aS'404@thejoeosborne'
p763
aS'@scottkwalker'
p764
aS'@nygiants'
p765
aS'404@aloracai'
p766
aS'404@buckingslams'
p767
aS'404@gysellalmonte'
p768
aS'404@danst_schwind'
p769
aS'404@87krusty87'
p770
aS'404@giftofgod1994'
p771
aS'404@bloombergnews'
p772
aS'404@colonopenbrakit'
p773
aS'404@kayvbb'
p774
aS'404@gloriousteepee'
p775
aS'404@1bombasscat'
p776
aS'404@politixchick'
p777
aS'@russia890'
p778
aS'@graeme123s'
p779
aS'404@deanoct'
p780
aS'404@kdharris59'
p781
aS'404@deemcna'
p782
aS'@elnskitty'
p783
aS'404@carolyngoltman'
p784
aS'@jokerzwild'
p785
aS'404@mzulianix3'
p786
aS'404@newtgingrich\xe2\x80\x8e'
p787
aS'@austile147'
p788
aS'@world_kids'
p789
aS'@dmhar'
p790
aS'404@duffman263'
p791
aS'404@pnerrad'
p792
aS'404@chef_riggy'
p793
aS'@tylarreese'
p794
aS'404@homeedmam'
p795
aS'404@tarrkoziara'
p796
aS'404@sarahbeth1020'
p797
aS'@artv1028'
p798
aS'404@canizalvania'
p799
aS'404@thecoolestemma'
p800
aS'404@guerrillatycoon'
p801
aS'@jfgrcar'
p802
aS'404@abcnews/@washingtonpost'
p803
aS'404@kingmeeetch'
p804
aS'@chrissuprun'
p805
aS'404@sundayhorse'
p806
aS'@chrisstackstacy'
p807
aS'404@0unicornchris0'
p808
aS'404@mattysmales1'
p809
aS'404@encouragedeve'
p810
aS'404@sagethelaxbro'
p811
aS'404@macfarb'
p812
aS'@fatmaninaspeedo'
p813
aS'404@slave4suzi'
p814
aS'404@projectmayhem_m'
p815
aS'404@wingsunchained'
p816
aS'404@benhrysack'
p817
aS'@wwefan123444'
p818
aS'404@goharderfitness'
p819
aS'404@sirbraden'
p820
aS'404@maryfallacaro'
p821
aS'@patrickbuchanan'
p822
aS'404@jnorr11'
p823
aS'404@carminemig21'
p824
aS'404@king_pepp'
p825
aS'@mitt'
p826
aS'404@lightjzup'
p827
aS'404@slabrunojr'
p828
aS'404@collegestump'
p829
aS'@limbaugh'
p830
aS'404@anastasiarubine'
p831
aS'@reddit_toronto'
p832
aS'404@austin_bighurt'
p833
aS'404@hafizzuddin_myu'
p834
aS'@carrie_wofford'
p835
aS'404@lechrispace'
p836
aS'@blckmssh'
p837
aS'@derekjeter'
p838
aS'404@cheezitscat'
p839
aS'@beandp749'
p840
aS'404@johnnyobots'
p841
aS'404@volkermillion'
p842
aS'404@bloopcrew'
p843
aS'404@cherish_how'
p844
aS'404@christuhglo'
p845
aS'@jack_p_ivory'
p846
aS'@golfmagazine'
p847
aS'404@smr111382'
p848
aS'@martindaryn'
p849
aS'@d_pardee'
p850
aS'404@mikeg_beats'
p851
aS'404@sissyrichqueenb'
p852
aS'404@purplite'
p853
aS'404@lillirome'
p854
aS'404@emilyjeffrie'
p855
aS'404@ginachaley'
p856
aS'404@davecentrist'
p857
aS'404@mikee116'
p858
aS'404@nicolewallace04'
p859
aS'404@killngamerjobs'
p860
aS'@derrintexada'
p861
aS'@thisisjoshsmith'
p862
aS'404@slwstdysqueeze'
p863
aS'404@crewsawyer'
p864
aS'404@traapgawddd'
p865
aS'404@oddi_donovan_99'
p866
aS'@j_lowry'
p867
aS'404@swooshl31'
p868
aS'@duqville'
p869
aS'404@kingsfansouth'
p870
aS'404@realdonaldtrump\xc2\xa0no'
p871
aS'@verizonwireless'
p872
aS'404@haay_ramiiie'
p873
aS'404@nydngatecrasher'
p874
aS'404@realldonaldtrump'
p875
aS'404@sad__mom'
p876
aS'404@grtblankenship'
p877
aS'404@lexie_chadss'
p878
aS'404@newnonny'
p879
aS'404@huizingadanny'
p880
aS'404@meep_swizzle'
p881
aS'404@hollysandersgc'
p882
aS'404@tyrone_deverger'
p883
aS'404@itscolinfowler'
p884
aS'404@mikefromtn'
p885
aS'@frankmdavisjr'
p886
aS'404@caleb2207'
p887
aS'404@northstarmf'
p888
aS'404@rbeezybess'
p889
aS'404@kamsunited'
p890
aS'404@jollygoodman181'
p891
aS'404@benkilzer'
p892
aS'404@foxnewsdear'
p893
aS'404@tayloroftexas'
p894
aS'404@jj55334767'
p895
aS'404@michael_mkw10'
p896
aS'404@lbcxyz'
p897
aS'404@lucysmommichele'
p898
aS'404@apoliticalbear'
p899
aS'@realsonnynewman'
p900
aS'404@ethwhitethanks'
p901
aS'404@abethbyr'
p902
aS'404@richardjnandlal'
p903
aS'@mayorbloomberg'
p904
aS'@erinsiegal'
p905
aS'404@princessdaytura'
p906
aS'@markdrucker1'
p907
aS'@boston_police'
p908
aS'@fund_anything'
p909
aS'404@congressgent'
p910
aS'404@nomomartychenko'
p911
aS'404@karefor5'
p912
aS'@wwpinc'
p913
aS'404@pablofication'
p914
aS'@cbs19'
p915
aS'@thetrueanthony'
p916
aS'404@turkeyofmurica'
p917
aS'404@twitt_be_cray'
p918
aS'@msnbctv'
p919
aS'404@lazymag'
p920
aS'404@thenewmrstim'
p921
aS'404@rpm11561'
p922
aS'@epilepsys'
p923
aS'404@ellontimeskenny'
p924
aS'404@thesween_bean'
p925
aS'404@derbitteractor'
p926
aS'404@osamabinballinn'
p927
aS'404@breitbartnewsl'
p928
aS'404@yadiratriunfo'
p929
aS'404@_chanelelle'
p930
aS'404@dbpresswire'
p931
aS'404@vilmawolfe03'
p932
aS'404@yang_karl'
p933
aS'@jacknicklaus'
p934
aS'404@omegaphoenix068'
p935
aS'@realdonald'
p936
aS'@writeitnow'
p937
aS'404@artfiopz'
p938
aS'404@jeffreykid44'
p939
aS'404@commissionerkelly'
p940
aS'404@jschmeezz23'
p941
aS'@mrmarin88'
p942
aS'404@pearls_n_bows'
p943
aS'404@danconiapm'
p944
aS'404@drvinaychopra'
p945
aS'@j_sab'
p946
aS'404@ethan738'
p947
aS'@amarudacosta'
p948
aS'404@mr_president706'
p949
aS'404@violac72'
p950
aS'@genuineaccess'
p951
aS'404@ricksmi54256322'
p952
aS'@jaymztyler'
p953
aS'404@natasha_tut13'
p954
aS'@caholcom53'
p955
aS'404@realmicihaelkay'
p956
aS'404@mjohnstonxoxo'
p957
aS'404@julieruot'
p958
aS'404@daniellecfriel'
p959
aS'404@captainluc'
p960
aS'404@_buckyou'
p961
aS'404@drew4diamond'
p962
aS'@liexafterxlie'
p963
aS'404@briansaheed'
p964
aS'404@bigpoppa181'
p965
aS'404@realjesus33'
p966
aS'404@squawkboxcnbc'
p967
aS'404@donlemon\xe2\x80\x98s'
p968
aS'@chrisbrown'
p969
aS'404@ragtopgirl12'
p970
aS'404@katrinotrinko'
p971
aS'@dailybeast'
p972
aS'404@trumpgolfla"@daniel_logan'
p973
aS'404@rivalofelmblock'
p974
aS'404@mibrunette'
p975
aS'404@pcufinn'
p976
aS'404@longlivetheboss'
p977
aS'404@maridythn'
p978
aS'404@mralanr'
p979
aS'404@gabagul'
p980
aS'404@miranda_diplo'
p981
aS'@katie_glueck'
p982
aS'404@miranda__phoebe'
p983
aS'404@peritustraining'
p984
aS'404@dblsolo7'
p985
aS'@jamie461'
p986
aS'@chipb'
p987
aS'404@plaisanceann'
p988
aS'404@toledosnow'
p989
aS'@talentedpaul'
p990
aS'404@luuuucy15'
p991
aS'@hunterbalthazor'
p992
aS'@asavagenation'
p993
aS'@muhfuck'
p994
aS'404@camarodays'
p995
aS'404@openchampionship'
p996
aS'404@kevingsmithjr'
p997
aS'404@ncartagena27'
p998
aS'@blazebluntsky'
p999
aS'404@communityjc'
p1000
aS'404@wussydemon'
p1001
aS'@sugarofsaturn'
p1002
aS'404@slwstdysque'
p1003
aS'404@maestrobeadles'
p1004
aS'404@ramkindaguy'
p1005
aS'404@nicollettesheridan'
p1006
aS'404@ahmedmallick2'
p1007
aS'@robertw33157775'
p1008
aS'404@dogs4peace'
p1009
aS'404@dualheadedeagle'
p1010
aS'404@the_indypendent'
p1011
aS'@helen39639472'
p1012
aS'404@mchandlerjones'
p1013
aS'404@ihealthquote'
p1014
aS'404@flyinosubuckeye'
p1015
aS'404@bagomaan_87'
p1016
aS'404@peaceisweakness'
p1017
aS'@lumberportal'
p1018
aS'404@neilwhinhampga'
p1019
aS'404@harvey_handy'
p1020
aS'404@womenzbinder'
p1021
aS'@nypd'
p1022
aS'404@gabepaul58'
p1023
aS'404@_xx_justme'
p1024
aS'@matt_cad'
p1025
aS'404@tudowz'
p1026
aS'404@cherylgravino'
p1027
aS'404@prayahater'
p1028
aS'@def'
p1029
aS'404@basilicaceo'
p1030
aS'404@imfrangtastic'
p1031
aS'404@megrunder'
p1032
aS'404@bossbuza'
p1033
aS'404@hatchetwounds'
p1034
aS'@warrenbuffett'
p1035
aS'404@earn_it_work'
p1036
aS'404@thatjguy92'
p1037
aS'404@surfacepro22'
p1038
aS'404@sir_r_l'
p1039
aS'404@willaa99'
p1040
aS'@wasimperviz'
p1041
aS'404@evneleven'
p1042
aS'404@wewantmitt2016'
p1043
aS'404@hrdiva_ny'
p1044
aS'404@curryslap'
p1045
aS'404@bss8888'
p1046
aS'@a380jet'
p1047
aS'@leghanliptak712'
p1048
aS'404@packerlegends'
p1049
aS'404@standattheready'
p1050
aS'404@mondrian70'
p1051
aS'@jjprl'
p1052
aS'404@bretech2'
p1053
aS'404@joshrosenfield'
p1054
aS'404@allanschwartz1'
p1055
aS'@colvio117'
p1056
aS'@mcdex207'
p1057
aS'404@_sierra03'
p1058
aS'404@officialbqgirls'
p1059
aS'@zacharyquinto'
p1060
aS'404@coffeepleaseam'
p1061
aS'404@_cnolan'
p1062
aS'@twerkmlley'
p1063
aS'@billoreilly'
p1064
aS'404@jarius_rembert'
p1065
aS'404@theholybreadcat'
p1066
aS'404@gangsterdannyg1'
p1067
aS'404@billaget1'
p1068
aS'@axlrose'
p1069
aS'@gfstew'
p1070
aS'404@hpea0899'
p1071
aS'404@dpdax'
p1072
a.